ccopy_reg
_reconstructor
p0
(csklearn.pipeline
Pipeline
p1
c__builtin__
object
p2
Ntp3
Rp4
(dp5
S'steps'
p6
(lp7
(S'minmaxscaler'
p8
g0
(csklearn.preprocessing.data
MinMaxScaler
p9
g2
Ntp10
Rp11
(dp12
S'copy'
p13
I01
sS'feature_range'
p14
(I0
I1
tp15
sbtp16
a(S'logisticregression'
p17
g0
(csklearn.linear_model.logistic
LogisticRegression
p18
g2
Ntp19
Rp20
(dp21
S'warm_start'
p22
I00
sS'C'
p23
I10000
sS'max_iter'
p24
I100
sS'verbose'
p25
I0
sS'intercept_scaling'
p26
I1
sS'dual'
p27
I00
sS'fit_intercept'
p28
I01
sS'solver'
p29
S'liblinear'
p30
sS'penalty'
p31
S'l2'
p32
sS'multi_class'
p33
S'ovr'
p34
sS'random_state'
p35
I42
sS'tol'
p36
F0.0001
sS'n_jobs'
p37
I1
sS'class_weight'
p38
S'balanced'
p39
sbtp40
asb.