(dp0
S'METTS MARK'
p1
(dp2
S'to_messages'
p3
F807.0
sS'deferral_payments'
p4
S'NaN'
p5
sS'exercised_ratio'
p6
g5
sS'expenses'
p7
F94299.0
sS'poi'
p8
F0.0
sS'long_term_incentive'
p9
g5
sS'email_address'
p10
S'mark.metts@enron.com'
p11
sS'from_poi_to_this_person'
p12
F38.0
sS'deferred_income'
p13
g5
sS'shared_with_poi_ratio'
p14
F0.8698884758364313
sS'wealth'
p15
F3293778.0
sS'log_exercised_stock_options'
p16
g5
sS'restricted_stock_deferred'
p17
g5
sS'shared_receipt_with_poi'
p18
F702.0
sS'loan_advances'
p19
g5
sS'from_messages'
p20
F29.0
sS'other'
p21
F1740.0
sS'to_poi_ratio'
p22
F0.034482758620689655
sS'director_fees'
p23
g5
sS'log_wealth'
p24
F6.51769432445607
sS'bonus'
p25
F600000.0
sS'total_stock_value'
p26
F585062.0
sS'from_this_person_to_poi'
p27
F1.0
sS'from_poi_ratio'
p28
F0.04708798017348203
sS'restricted_stock'
p29
F585062.0
sS'salary'
p30
F365788.0
sS'sqrt_wealth'
p31
F1814.8768553265536
sS'total_payments'
p32
F1061827.0
sS'exercised_stock_options'
p33
g5
sS'sqrt_exercised_stock_options'
p34
g5
ssS'BAXTER JOHN C'
p35
(dp36
g3
g5
sg4
F1295738.0
sg6
F0.6288601858299968
sg7
F11200.0
sg8
F0.0
sg9
F1586055.0
sg10
S'NaN'
p37
sg12
g5
sg13
F-1386055.0
sg14
g5
sg15
F24338920.0
sg16
F6.824811828729837
sg17
g5
sg18
g5
sg19
g5
sg20
g5
sg21
F2660303.0
sg22
g5
sg23
g5
sg24
F7.386301303210122
sg25
F1200000.0
sg26
F10623258.0
sg27
g5
sg28
g5
sg29
F3942714.0
sg30
F267102.0
sg31
F4933.4490977408495
sg32
F5634343.0
sg33
F6680544.0
sg34
F2584.674834481119
ssS'ELLIOTT STEVEN'
p38
(dp39
g3
g5
sg4
g5
sg6
F0.7322260877246963
sg7
F78552.0
sg8
F0.0
sg9
g5
sg10
S'steven.elliott@enron.com'
p40
sg12
g5
sg13
F-400729.0
sg14
g5
sg15
F9291305.0
sg16
F6.689339409644509
sg17
g5
sg18
g5
sg19
g5
sg20
g5
sg21
F12961.0
sg22
g5
sg23
g5
sg24
F6.968076716630412
sg25
F350000.0
sg26
F6678735.0
sg27
g5
sg28
g5
sg29
F1788391.0
sg30
F170941.0
sg31
F3048.164201613817
sg32
F211725.0
sg33
F4890344.0
sg34
F2211.41221847036
ssS'CORDES WILLIAM R'
p41
(dp42
g3
F764.0
sg4
g5
sg6
F0.6278746080900803
sg7
g5
sg8
F0.0
sg9
g5
sg10
S'bill.cordes@enron.com'
p43
sg12
F10.0
sg13
g5
sg14
F0.07591623036649214
sg15
F1424520.0
sg16
F5.814147669862268
sg17
g5
sg18
F58.0
sg19
g5
sg20
F12.0
sg21
g5
sg22
F0.0
sg23
g5
sg24
F6.153668551033315
sg25
g5
sg26
F1038185.0
sg27
F0.0
sg28
F0.013089005235602094
sg29
F386335.0
sg30
g5
sg31
F1193.5325718219842
sg32
g5
sg33
F651850.0
sg34
F807.3722809212612
ssS'HANNON KEVIN P'
p44
(dp45
g3
F1045.0
sg4
g5
sg6
F0.8665224027607292
sg7
F34039.0
sg8
F1.0
sg9
F1617011.0
sg10
S'kevin.hannon@enron.com'
p46
sg12
F32.0
sg13
F-3117011.0
sg14
F0.9904306220095693
sg15
F9321493.0
sg16
F6.743353029830365
sg17
g5
sg18
F1035.0
sg19
g5
sg20
F32.0
sg21
F11350.0
sg22
F0.65625
sg23
g5
sg24
F6.969485477775899
sg25
F1500000.0
sg26
F6391065.0
sg27
F21.0
sg28
F0.03062200956937799
sg29
F853064.0
sg30
F243293.0
sg31
F3053.1120189079206
sg32
F288682.0
sg33
F5538001.0
sg34
F2353.2957740156676
ssS'MORDAUNT KRISTINA M'
p47
(dp48
g3
g5
sg4
g5
sg6
g5
sg7
F35018.0
sg8
F0.0
sg9
g5
sg10
S'kristina.mordaunt@enron.com'
p49
sg12
g5
sg13
g5
sg14
g5
sg15
F1674064.0
sg16
g5
sg17
g5
sg18
g5
sg19
g5
sg20
g5
sg21
F1411.0
sg22
g5
sg23
g5
sg24
F6.223772057191012
sg25
F325000.0
sg26
F208510.0
sg27
g5
sg28
g5
sg29
F208510.0
sg30
F267093.0
sg31
F1293.856251675587
sg32
F628522.0
sg33
g5
sg34
g5
ssS'MEYER ROCKFORD G'
p50
(dp51
g3
F232.0
sg4
F1848227.0
sg6
F0.5162704668925684
sg7
g5
sg8
F0.0
sg9
g5
sg10
S'rockford.meyer@enron.com'
p52
sg12
F0.0
sg13
g5
sg14
F0.09482758620689655
sg15
F3266484.0
sg16
F5.69327747657497
sg17
g5
sg18
F22.0
sg19
g5
sg20
F28.0
sg21
g5
sg22
F0.0
sg23
g5
sg24
F6.514080535255442
sg25
g5
sg26
F955873.0
sg27
F0.0
sg28
F0.0
sg29
F462384.0
sg30
g5
sg31
F1807.3416943123955
sg32
F1848227.0
sg33
F493489.0
sg34
F702.4877223126394
ssS'MCMAHON JEFFREY'
p53
(dp54
g3
F2355.0
sg4
g5
sg6
F0.6639508556067727
sg7
F137108.0
sg8
F0.0
sg9
F694862.0
sg10
S'jeffrey.mcmahon@enron.com'
p55
sg12
F58.0
sg13
g5
sg14
F0.9460721868365181
sg15
F9726336.0
sg16
F6.042990315538551
sg17
g5
sg18
F2228.0
sg19
g5
sg20
F48.0
sg21
F297353.0
sg22
F0.5416666666666666
sg23
g5
sg24
F6.987949268360413
sg25
F2600000.0
sg26
F1662855.0
sg27
F26.0
sg28
F0.024628450106157114
sg29
F558801.0
sg30
F370448.0
sg31
F3118.707424559091
sg32
F4099771.0
sg33
F1104054.0
sg34
F1050.7397394217085
ssS'HAEDICKE MARK E'
p56
(dp57
g3
F4009.0
sg4
F2157527.0
sg6
F0.7580059121348186
sg7
F76169.0
sg8
F0.0
sg9
F983346.0
sg10
S'mark.haedicke@enron.com'
p58
sg12
F180.0
sg13
F-934484.0
sg14
F0.4607133948615615
sg15
F6839004.0
sg16
F5.784438974222691
sg17
F-329825.0
sg18
F1847.0
sg19
g5
sg20
F1941.0
sg21
F52382.0
sg22
F0.03142709943328181
sg23
g5
sg24
F6.834992857743473
sg25
F1150000.0
sg26
F803094.0
sg27
F61.0
sg28
F0.04489897730107259
sg29
F524169.0
sg30
F374125.0
sg31
F2615.1489441330104
sg32
F3859065.0
sg33
F608750.0
sg34
F780.2243267163617
ssS'PIPER GREGORY F'
p59
(dp60
g3
F1238.0
sg4
F1130036.0
sg6
F1.0
sg7
F43057.0
sg8
F0.0
sg9
g5
sg10
S'greg.piper@enron.com'
p61
sg12
F61.0
sg13
F-33333.0
sg14
F0.5993537964458805
sg15
F3668399.0
sg16
F5.944625768345558
sg17
F-409554.0
sg18
F742.0
sg19
g5
sg20
F222.0
sg21
F778.0
sg22
F0.21621621621621623
sg23
g5
sg24
F6.564476566385713
sg25
F400000.0
sg26
F880290.0
sg27
F48.0
sg28
F0.049273021001615507
sg29
F409554.0
sg30
F197091.0
sg31
F1915.306502886679
sg32
F1737629.0
sg33
F880290.0
sg34
F938.2377097516386
ssS'HUMPHREY GENE E'
p62
(dp63
g3
F128.0
sg4
F2964506.0
sg6
F1.0
sg7
F4994.0
sg8
F0.0
sg9
g5
sg10
S'gene.humphrey@enron.com'
p64
sg12
F10.0
sg13
g5
sg14
F0.9296875
sg15
F5518710.0
sg16
F6.358461775949451
sg17
g5
sg18
F119.0
sg19
g5
sg20
F17.0
sg21
g5
sg22
F1.0
sg23
g5
sg24
F6.741837573135962
sg25
g5
sg26
F2282768.0
sg27
F17.0
sg28
F0.078125
sg29
g5
sg30
F130724.0
sg31
F2349.1934786219717
sg32
F3100224.0
sg33
F2282768.0
sg34
F1510.8831854250018
ssS'NOLES JAMES L'
p65
(dp66
g3
g5
sg4
F774401.0
sg6
g5
sg7
g5
sg8
F0.0
sg9
g5
sg10
g37
sg12
g5
sg13
g5
sg14
g5
sg15
F1606367.0
sg16
g5
sg17
F-94556.0
sg18
g5
sg19
g5
sg20
g5
sg21
g5
sg22
g5
sg23
g5
sg24
F6.205844773736145
sg25
g5
sg26
F368705.0
sg27
g5
sg28
g5
sg29
F463261.0
sg30
g5
sg31
F1267.4253429689657
sg32
F774401.0
sg33
g5
sg34
g5
ssS'BLACHMAN JEREMY M'
p67
(dp68
g3
F2475.0
sg4
g5
sg6
F0.8019173178925221
sg7
F84208.0
sg8
F0.0
sg9
F831809.0
sg10
S'jeremy.blachman@enron.com'
p69
sg12
F25.0
sg13
g5
sg14
F0.9397979797979797
sg15
F4341256.0
sg16
F5.883839090541413
sg17
g5
sg18
F2326.0
sg19
g5
sg20
F14.0
sg21
F272.0
sg22
F0.14285714285714285
sg23
g5
sg24
F6.637615396552643
sg25
F850000.0
sg26
F954354.0
sg27
F2.0
sg28
F0.010101010101010102
sg29
F189041.0
sg30
F248546.0
sg31
F2083.568093439713
sg32
F2014835.0
sg33
F765313.0
sg34
F874.8216961187005
ssS'SUNDE MARTIN'
p70
(dp71
g3
F2647.0
sg4
g5
sg6
g5
sg7
g5
sg8
F0.0
sg9
F476451.0
sg10
S'marty.sunde@enron.com'
p72
sg12
F37.0
sg13
g5
sg14
F0.9690215338118625
sg15
F4011507.0
sg16
g5
sg17
g5
sg18
F2565.0
sg19
g5
sg20
F38.0
sg21
F111122.0
sg22
F0.34210526315789475
sg23
g5
sg24
F6.603307554374416
sg25
F700000.0
sg26
F698920.0
sg27
F13.0
sg28
F0.013978088401964487
sg29
F698920.0
sg30
F257486.0
sg31
F2002.8746840479062
sg32
F1545059.0
sg33
g5
sg34
g5
ssS'GIBBS DANA R'
p73
(dp74
g3
F169.0
sg4
F504610.0
sg6
F1.0
sg7
g5
sg8
F0.0
sg9
F461912.0
sg10
S'dana.gibbs@enron.com'
p75
sg12
F0.0
sg13
g5
sg14
F0.13609467455621302
sg15
F3184797.0
sg16
F6.346015384725349
sg17
g5
sg18
F23.0
sg19
g5
sg20
F12.0
sg21
g5
sg22
F0.0
sg23
g5
sg24
F6.503081755481574
sg25
g5
sg26
F2218275.0
sg27
F0.0
sg28
F0.0
sg29
g5
sg30
g5
sg31
F1784.5999551720267
sg32
F966522.0
sg33
F2218275.0
sg34
F1489.3874579839862
ssS'LOWRY CHARLES P'
p76
(dp77
g3
g5
sg4
g5
sg6
F1.0
sg7
g5
sg8
F0.0
sg9
g5
sg10
g37
sg12
g5
sg13
g5
sg14
g5
sg15
F525891.0
sg16
F5.570782202910343
sg17
F-153686.0
sg18
g5
sg19
g5
sg20
g5
sg21
g5
sg22
g5
sg23
g5
sg24
F5.720895738442697
sg25
g5
sg26
F372205.0
sg27
g5
sg28
g5
sg29
F153686.0
sg30
g5
sg31
F725.1834250725813
sg32
g5
sg33
F372205.0
sg34
F610.0860595030836
ssS'COLWELL WESLEY'
p78
(dp79
g3
F1758.0
sg4
F27610.0
sg6
g5
sg7
F16514.0
sg8
F1.0
sg9
g5
sg10
S'wes.colwell@enron.com'
p80
sg12
F240.0
sg13
F-144062.0
sg14
F0.6439135381114903
sg15
F4493624.0
sg16
g5
sg17
g5
sg18
F1132.0
sg19
g5
sg20
F40.0
sg21
F101740.0
sg22
F0.275
sg23
g5
sg24
F6.652596730398025
sg25
F1200000.0
sg26
F698242.0
sg27
F11.0
sg28
F0.13651877133105803
sg29
F698242.0
sg30
F288542.0
sg31
F2119.8169732314154
sg32
F1490344.0
sg33
g5
sg34
g5
ssS'MULLER MARK S'
p81
(dp82
g3
F136.0
sg4
F842924.0
sg6
F0.7455422176549636
sg7
g5
sg8
F0.0
sg9
F1725545.0
sg10
S's..muller@enron.com'
p83
sg12
F12.0
sg13
F-719000.0
sg14
F0.8382352941176471
sg15
F6332047.0
sg16
F6.023795502650217
sg17
g5
sg18
F114.0
sg19
g5
sg20
F16.0
sg21
F947.0
sg22
F0.0
sg23
g5
sg24
F6.801544129779216
sg25
F1100000.0
sg26
F1416848.0
sg27
F0.0
sg28
F0.08823529411764706
sg29
F360528.0
sg30
F251654.0
sg31
F2516.3558969271417
sg32
F3202070.0
sg33
F1056320.0
sg34
F1027.7742942883908
ssS'JACKSON CHARLENE R'
p84
(dp85
g3
F258.0
sg4
g5
sg6
F0.25500079230021977
sg7
F10181.0
sg8
F0.0
sg9
g5
sg10
S'charlene.jackson@enron.com'
p86
sg12
F25.0
sg13
g5
sg14
F0.45348837209302323
sg15
F2368755.0
sg16
F5.267319598104249
sg17
g5
sg18
F117.0
sg19
g5
sg20
F56.0
sg21
F2435.0
sg22
F0.3392857142857143
sg23
g5
sg24
F6.374520144027764
sg25
F250000.0
sg26
F725735.0
sg27
F19.0
sg28
F0.09689922480620156
sg29
F540672.0
sg30
F288558.0
sg31
F1539.076021514207
sg32
F551174.0
sg33
F185063.0
sg34
F430.18949313064354
ssS'WESTFAHL RICHARD K'
p87
(dp88
g3
g5
sg4
g5
sg6
g5
sg7
F51870.0
sg8
F0.0
sg9
F256191.0
sg10
S'dick.westfahl@enron.com'
p89
sg12
g5
sg13
F-10800.0
sg14
g5
sg15
F2048739.0
sg16
g5
sg17
g5
sg18
g5
sg19
g5
sg20
g5
sg21
F401130.0
sg22
g5
sg23
g5
sg24
F6.311486634789842
sg25
g5
sg26
F384930.0
sg27
g5
sg28
g5
sg29
F384930.0
sg30
F63744.0
sg31
F1431.341678286495
sg32
F762135.0
sg33
g5
sg34
g5
ssS'WALTERS GARETH W'
p90
(dp91
g3
g5
sg4
F53625.0
sg6
F1.0
sg7
F33785.0
sg8
F0.0
sg9
g5
sg10
g37
sg12
g5
sg13
g5
sg14
g5
sg15
F1151524.0
sg16
F6.012975923802026
sg17
g5
sg18
g5
sg19
g5
sg20
g5
sg21
g5
sg22
g5
sg23
g5
sg24
F6.06127299393633
sg25
g5
sg26
F1030329.0
sg27
g5
sg28
g5
sg29
g5
sg30
g5
sg31
F1073.0908628816107
sg32
F87410.0
sg33
F1030329.0
sg34
F1015.0512302342182
ssS'WALLS JR ROBERT H'
p92
(dp93
g3
F671.0
sg4
g5
sg6
F0.7368276335790643
sg7
F50936.0
sg8
F0.0
sg9
F540751.0
sg10
S'rob.walls@enron.com'
p94
sg12
F17.0
sg13
g5
sg14
F0.3204172876304024
sg15
F10508259.0
sg16
F6.638144080340003
sg17
g5
sg18
F215.0
sg19
g5
sg20
F146.0
sg21
F2.0
sg22
F0.0
sg23
g5
sg24
F7.0215307684235695
sg25
F850000.0
sg26
F5898997.0
sg27
F0.0
sg28
F0.02533532041728763
sg29
F1552453.0
sg30
F357091.0
sg31
F3241.6444900698166
sg32
F1798780.0
sg33
F4346544.0
sg34
F2084.836684251311
ssS'KITCHEN LOUISE'
p95
(dp96
g3
F8305.0
sg4
g5
sg6
F0.14811849918577044
sg7
F5774.0
sg8
F0.0
sg9
g5
sg10
S'louise.kitchen@enron.com'
p97
sg12
F251.0
sg13
g5
sg14
F0.441782059000602
sg15
F7955526.0
sg16
F4.908710150247658
sg17
g5
sg18
F3669.0
sg19
g5
sg20
F1728.0
sg21
F93925.0
sg22
F0.11226851851851852
sg23
g5
sg24
F6.90066889942514
sg25
F3100000.0
sg26
F547143.0
sg27
F194.0
sg28
F0.030222757375075255
sg29
F466101.0
sg30
F271442.0
sg31
F2820.5542008619514
sg32
F3471141.0
sg33
F81042.0
sg34
F284.6787663314565
ssS'CHAN RONNIE'
p98
(dp99
g3
g5
sg4
g5
sg6
g5
sg7
g5
sg8
F0.0
sg9
g5
sg10
g37
sg12
g5
sg13
F-98784.0
sg14
g5
sg15
F32460.0
sg16
g5
sg17
F-32460.0
sg18
g5
sg19
g5
sg20
g5
sg21
g5
sg22
g5
sg23
F98784.0
sg24
F4.511348515490213
sg25
g5
sg26
g5
sg27
g5
sg28
g5
sg29
F32460.0
sg30
g5
sg31
F180.16658957753515
sg32
g5
sg33
g5
sg34
g5
ssS'BELFER ROBERT'
p100
(dp101
g3
g5
sg4
F-102500.0
sg6
F-0.07450162157258522
sg7
g5
sg8
F0.0
sg9
g5
sg10
g37
sg12
g5
sg13
g5
sg14
g5
sg15
F58407.0
sg16
F3.5165353738957994
sg17
F44093.0
sg18
g5
sg19
g5
sg20
g5
sg21
g5
sg22
g5
sg23
F3285.0
sg24
F4.766464899838297
sg25
g5
sg26
F-44093.0
sg27
g5
sg28
g5
sg29
g5
sg30
g5
sg31
F241.6754021409709
sg32
F102500.0
sg33
F3285.0
sg34
F57.3149195236284
ssS'SHANKMAN JEFFREY A'
p102
(dp103
g3
F3221.0
sg4
g5
sg6
F0.6958849633331483
sg7
F178979.0
sg8
F0.0
sg9
F554422.0
sg10
S'jeffrey.shankman@enron.com'
p104
sg12
F94.0
sg13
g5
sg14
F0.5371002794163303
sg15
F8225154.0
sg16
F6.158934539437543
sg17
g5
sg18
F1730.0
sg19
g5
sg20
F2681.0
sg21
F1191.0
sg22
F0.030958597538232
sg23
g5
sg24
F6.915144038017039
sg25
F2000000.0
sg26
F2072035.0
sg27
F83.0
sg28
F0.029183483390251473
sg29
F630137.0
sg30
F304110.0
sg31
F2867.952928484008
sg32
F3038702.0
sg33
F1441898.0
sg34
F1200.7905729143613
ssS'WODRASKA JOHN'
p105
(dp106
g3
g5
sg4
g5
sg6
g5
sg7
g5
sg8
F0.0
sg9
g5
sg10
S'john.wodraska@enron.com'
p107
sg12
g5
sg13
g5
sg14
g5
sg15
F379166.0
sg16
g5
sg17
g5
sg18
g5
sg19
g5
sg20
g5
sg21
F189583.0
sg22
g5
sg23
g5
sg24
F5.578829387014123
sg25
g5
sg26
g5
sg27
g5
sg28
g5
sg29
g5
sg30
g5
sg31
F615.7645653981723
sg32
F189583.0
sg33
g5
sg34
g5
ssS'BERGSIEKER RICHARD P'
p108
(dp109
g3
F383.0
sg4
g5
sg6
g5
sg7
F59175.0
sg8
F0.0
sg9
F180250.0
sg10
S'rick.bergsieker@enron.com'
p110
sg12
F4.0
sg13
F-485813.0
sg14
F0.608355091383812
sg15
F2861761.0
sg16
g5
sg17
g5
sg18
F233.0
sg19
g5
sg20
F59.0
sg21
F427316.0
sg22
F0.0
sg23
g5
sg24
F6.456633360830001
sg25
F250000.0
sg26
F659249.0
sg27
F0.0
sg28
F0.010443864229765013
sg29
F659249.0
sg30
F187922.0
sg31
F1691.674022972511
sg32
F618850.0
sg33
g5
sg34
g5
ssS'URQUHART JOHN A'
p111
(dp112
g3
g5
sg4
g5
sg6
g5
sg7
F228656.0
sg8
F0.0
sg9
g5
sg10
g37
sg12
g5
sg13
F-36666.0
sg14
g5
sg15
F457312.0
sg16
g5
sg17
g5
sg18
g5
sg19
g5
sg20
g5
sg21
g5
sg22
g5
sg23
F36666.0
sg24
F5.660212597543826
sg25
g5
sg26
g5
sg27
g5
sg28
g5
sg29
g5
sg30
g5
sg31
F676.2484750444913
sg32
F228656.0
sg33
g5
sg34
g5
ssS'BIBI PHILIPPE A'
p113
(dp114
g3
F1607.0
sg4
g5
sg6
F0.7949459165122768
sg7
F38559.0
sg8
F0.0
sg9
F369721.0
sg10
S'philippe.bibi@enron.com'
p115
sg12
F23.0
sg13
g5
sg14
F0.8313627878033603
sg15
F5947363.0
sg16
F6.166055162110025
sg17
g5
sg18
F1336.0
sg19
g5
sg20
F40.0
sg21
F425688.0
sg22
F0.2
sg23
g5
sg24
F6.774324446669069
sg25
F1000000.0
sg26
F1843816.0
sg27
F8.0
sg28
F0.01431238332296204
sg29
F378082.0
sg30
F213625.0
sg31
F2438.7215913260784
sg32
F2047593.0
sg33
F1465734.0
sg34
F1210.6750183265533
ssS'RIEKER PAULA H'
p116
(dp117
g3
F1328.0
sg4
F214678.0
sg6
F0.8521804566918219
sg7
F33271.0
sg8
F1.0
sg9
g5
sg10
S'paula.rieker@enron.com'
p118
sg12
F35.0
sg13
F-100000.0
sg14
F0.947289156626506
sg15
F4286058.0
sg16
F6.213580970797182
sg17
g5
sg18
F1258.0
sg19
g5
sg20
F82.0
sg21
F1950.0
sg22
F0.5853658536585366
sg23
g5
sg24
F6.6320580437262295
sg25
F700000.0
sg26
F1918887.0
sg27
F48.0
sg28
F0.02635542168674699
sg29
F283649.0
sg30
F249201.0
sg31
F2070.2796912494696
sg32
F1099100.0
sg33
F1635238.0
sg34
F1278.7642472324599
ssS'WHALEY DAVID A'
p119
(dp120
g3
g5
sg4
g5
sg6
F1.0
sg7
g5
sg8
F0.0
sg9
g5
sg10
g37
sg12
g5
sg13
g5
sg14
g5
sg15
F98718.0
sg16
F4.994396348089466
sg17
g5
sg18
g5
sg19
g5
sg20
g5
sg21
g5
sg22
g5
sg23
g5
sg24
F4.994396348089466
sg25
g5
sg26
F98718.0
sg27
g5
sg28
g5
sg29
g5
sg30
g5
sg31
F314.1942074577442
sg32
g5
sg33
F98718.0
sg34
F314.1942074577442
ssS'BECK SALLY W'
p121
(dp122
g3
F7315.0
sg4
g5
sg6
g5
sg7
F37172.0
sg8
F0.0
sg9
g5
sg10
S'sally.beck@enron.com'
p123
sg12
F144.0
sg13
g5
sg14
F0.36076555023923446
sg15
F2190190.0
sg16
g5
sg17
g5
sg18
F2639.0
sg19
g5
sg20
F4343.0
sg21
F566.0
sg22
F0.08887865530739121
sg23
g5
sg24
F6.340481791722452
sg25
F700000.0
sg26
F126027.0
sg27
F386.0
sg28
F0.01968557758031442
sg29
F126027.0
sg30
F231330.0
sg31
F1479.9290523535242
sg32
F969068.0
sg33
g5
sg34
g5
ssS'HAUG DAVID L'
p124
(dp125
g3
F573.0
sg4
g5
sg6
g5
sg7
F475.0
sg8
F0.0
sg9
g5
sg10
S'david.haug@enron.com'
p126
sg12
F4.0
sg13
g5
sg14
F0.8219895287958116
sg15
F4435548.0
sg16
g5
sg17
g5
sg18
F471.0
sg19
g5
sg20
F19.0
sg21
g5
sg22
F0.3684210526315789
sg23
g5
sg24
F6.646947283395199
sg25
g5
sg26
F2217299.0
sg27
F7.0
sg28
F0.006980802792321117
sg29
F2217299.0
sg30
g5
sg31
F2106.074072771421
sg32
F475.0
sg33
g5
sg34
g5
ssS'ECHOLS JOHN B'
p127
(dp128
g3
g5
sg4
g5
sg6
F0.5961081966140735
sg7
F21530.0
sg8
F0.0
sg9
F2234774.0
sg10
S'john.echols@enron.com'
p129
sg12
g5
sg13
g5
sg14
g5
sg15
F4566318.0
sg16
F5.7791908641851
sg17
g5
sg18
g5
sg19
g5
sg20
g5
sg21
F53775.0
sg22
g5
sg23
g5
sg24
F6.659566152628652
sg25
F200000.0
sg26
F1008941.0
sg27
g5
sg28
g5
sg29
F407503.0
sg30
F182245.0
sg31
F2136.8944756351448
sg32
F2692324.0
sg33
F601438.0
sg34
F775.5243387541103
ssS'MENDELSOHN JOHN'
p130
(dp131
g3
g5
sg4
g5
sg6
g5
sg7
F148.0
sg8
F0.0
sg9
g5
sg10
g37
sg12
g5
sg13
F-103750.0
sg14
g5
sg15
F296.0
sg16
g5
sg17
g5
sg18
g5
sg19
g5
sg20
g5
sg21
g5
sg22
g5
sg23
F103750.0
sg24
F2.4712917110589387
sg25
g5
sg26
g5
sg27
g5
sg28
g5
sg29
g5
sg30
g5
sg31
F17.204650534085253
sg32
F148.0
sg33
g5
sg34
g5
ssS'HICKERSON GARY J'
p132
(dp133
g3
F1320.0
sg4
g5
sg6
g5
sg7
F98849.0
sg8
F0.0
sg9
F69223.0
sg10
S'gary.hickerson@enron.com'
p134
sg12
F40.0
sg13
g5
sg14
F0.6818181818181818
sg15
F4976561.0
sg16
g5
sg17
g5
sg18
F900.0
sg19
g5
sg20
F27.0
sg21
F1936.0
sg22
F0.037037037037037035
sg23
g5
sg24
F6.6969293317855145
sg25
F1700000.0
sg26
F441096.0
sg27
F1.0
sg28
F0.030303030303030304
sg29
F441096.0
sg30
F211788.0
sg31
F2230.820700997729
sg32
F2081796.0
sg33
g5
sg34
g5
ssS'CLINE KENNETH W'
p135
(dp136
g3
g5
sg4
g5
sg6
g5
sg7
g5
sg8
F0.0
sg9
g5
sg10
g37
sg12
g5
sg13
g5
sg14
g5
sg15
F851604.0
sg16
g5
sg17
F-472568.0
sg18
g5
sg19
g5
sg20
g5
sg21
g5
sg22
g5
sg23
g5
sg24
F5.930237692660423
sg25
g5
sg26
F189518.0
sg27
g5
sg28
g5
sg29
F662086.0
sg30
g5
sg31
F922.8239268679589
sg32
g5
sg33
g5
sg34
g5
ssS'LEWIS RICHARD'
p137
(dp138
g3
F952.0
sg4
g5
sg6
F1.0
sg7
g5
sg8
F0.0
sg9
g5
sg10
S'richard.lewis@enron.com'
p139
sg12
F10.0
sg13
g5
sg14
F0.7762605042016807
sg15
F850477.0
sg16
F5.929662573200617
sg17
g5
sg18
F739.0
sg19
g5
sg20
F26.0
sg21
g5
sg22
F0.0
sg23
g5
sg24
F5.929662573200617
sg25
g5
sg26
F850477.0
sg27
F0.0
sg28
F0.01050420168067227
sg29
g5
sg30
g5
sg31
F922.213099017792
sg32
g5
sg33
F850477.0
sg34
F922.213099017792
ssS'HAYES ROBERT E'
p140
(dp141
g3
F504.0
sg4
F7961.0
sg6
g5
sg7
g5
sg8
F0.0
sg9
g5
sg10
S'robert.hayes@enron.com'
p142
sg12
F16.0
sg13
g5
sg14
F0.0992063492063492
sg15
F310797.0
sg16
g5
sg17
g5
sg18
F50.0
sg19
g5
sg20
F12.0
sg21
g5
sg22
F0.0
sg23
g5
sg24
F5.492476818076966
sg25
g5
sg26
F151418.0
sg27
F0.0
sg28
F0.031746031746031744
sg29
F151418.0
sg30
g5
sg31
F557.4917039741489
sg32
F7961.0
sg33
g5
sg34
g5
ssS'KOPPER MICHAEL J'
p143
(dp144
g3
g5
sg4
g5
sg6
g5
sg7
F118134.0
sg8
F1.0
sg9
F602671.0
sg10
S'michael.kopper@enron.com'
p145
sg12
g5
sg13
g5
sg14
g5
sg15
F6672617.0
sg16
g5
sg17
g5
sg18
g5
sg19
g5
sg20
g5
sg21
F907502.0
sg22
g5
sg23
g5
sg24
F6.824296197597635
sg25
F800000.0
sg26
F985032.0
sg27
g5
sg28
g5
sg29
F985032.0
sg30
F224305.0
sg31
F2583.1409175652807
sg32
F2652612.0
sg33
g5
sg34
g5
ssS'LEFF DANIEL P'
p146
(dp147
g3
F2822.0
sg4
g5
sg6
g5
sg7
g5
sg8
F0.0
sg9
F1387399.0
sg10
S'dan.leff@enron.com'
p148
sg12
F67.0
sg13
g5
sg14
F0.9468462083628633
sg15
F4662113.0
sg16
g5
sg17
g5
sg18
F2672.0
sg19
g5
sg20
F63.0
sg21
F3083.0
sg22
F0.2222222222222222
sg23
g5
sg24
F6.668582795714311
sg25
F1000000.0
sg26
F360528.0
sg27
F14.0
sg28
F0.02374202693125443
sg29
F360528.0
sg30
F273746.0
sg31
F2159.1926731998697
sg32
F2664228.0
sg33
g5
sg34
g5
ssS'LAVORATO JOHN J'
p149
(dp150
g3
F7259.0
sg4
g5
sg6
F0.80489241252034
sg7
F49537.0
sg8
F0.0
sg9
F2035380.0
sg10
S'john.lavorato@enron.com'
p151
sg12
F528.0
sg13
g5
sg14
F0.5458052073288332
sg15
F24991427.0
sg16
F6.6189883982505515
sg17
g5
sg18
F3962.0
sg19
g5
sg20
F2585.0
sg21
F1552.0
sg22
F0.15899419729206962
sg23
g5
sg24
F7.397791054867224
sg25
F8000000.0
sg26
F5167144.0
sg27
F411.0
sg28
F0.07273729163796666
sg29
F1008149.0
sg30
F339288.0
sg31
F4999.142626491067
sg32
F10425757.0
sg33
F4158995.0
sg34
F2039.361419660576
ssS'BERBERIAN DAVID'
p152
(dp153
g3
g5
sg4
g5
sg6
F0.6514218708895034
sg7
F11892.0
sg8
F0.0
sg9
g5
sg10
S'david.berberian@enron.com'
p154
sg12
g5
sg13
g5
sg14
g5
sg15
F3819784.0
sg16
F6.2106919113892465
sg17
g5
sg18
g5
sg19
g5
sg20
g5
sg21
g5
sg22
g5
sg23
g5
sg24
F6.582038805251933
sg25
g5
sg26
F2493616.0
sg27
g5
sg28
g5
sg29
F869220.0
sg30
F216582.0
sg31
F1954.4267701809654
sg32
F228474.0
sg33
F1624396.0
sg34
F1274.5179480886097
ssS'DETMERING TIMOTHY J'
p155
(dp156
g3
g5
sg4
F875307.0
sg6
F1.0
sg7
F52255.0
sg8
F0.0
sg9
F415657.0
sg10
S'timothy.detmering@enron.com'
p157
sg12
g5
sg13
F-775241.0
sg14
g5
sg15
F4236376.0
sg16
F6.307039039563381
sg17
F-315068.0
sg18
g5
sg19
g5
sg20
g5
sg21
F1105.0
sg22
g5
sg23
g5
sg24
F6.626994498998799
sg25
F425000.0
sg26
F2027865.0
sg27
g5
sg28
g5
sg29
F315068.0
sg30
F210500.0
sg31
F2058.2458550911747
sg32
F1204583.0
sg33
F2027865.0
sg34
F1424.0312496571134
ssS'WAKEHAM JOHN'
p158
(dp159
g3
g5
sg4
g5
sg6
g5
sg7
F103773.0
sg8
F0.0
sg9
g5
sg10
g37
sg12
g5
sg13
g5
sg14
g5
sg15
F316844.0
sg16
g5
sg17
g5
sg18
g5
sg19
g5
sg20
g5
sg21
g5
sg22
g5
sg23
F109298.0
sg24
F5.500845487407089
sg25
g5
sg26
g5
sg27
g5
sg28
g5
sg29
g5
sg30
g5
sg31
F562.8889766197238
sg32
F213071.0
sg33
g5
sg34
g5
ssS'POWERS WILLIAM'
p160
(dp161
g3
F653.0
sg4
g5
sg6
g5
sg7
g5
sg8
F0.0
sg9
g5
sg10
S'ken.powers@enron.com'
p162
sg12
F0.0
sg13
F-17500.0
sg14
F0.018376722817764167
sg15
F0.0
sg16
g5
sg17
g5
sg18
F12.0
sg19
g5
sg20
F26.0
sg21
g5
sg22
F0.0
sg23
F17500.0
sg24
F0.0
sg25
g5
sg26
g5
sg27
F0.0
sg28
F0.0
sg29
g5
sg30
g5
sg31
F0.0
sg32
g5
sg33
g5
sg34
g5
ssS'GOLD JOSEPH'
p163
(dp164
g3
g5
sg4
g5
sg6
F0.4973900737342627
sg7
g5
sg8
F0.0
sg9
F304805.0
sg10
S'joe.gold@enron.com'
p165
sg12
g5
sg13
g5
sg14
g5
sg15
F5307848.0
sg16
F5.639999171994165
sg17
g5
sg18
g5
sg19
g5
sg20
g5
sg21
F819288.0
sg22
g5
sg23
g5
sg24
F6.724918477548382
sg25
F750000.0
sg26
F877611.0
sg27
g5
sg28
g5
sg29
F441096.0
sg30
F272880.0
sg31
F2303.8767328136287
sg32
F2146973.0
sg33
F436515.0
sg34
F660.6928181840635
ssS'BANNANTINE JAMES M'
p166
(dp167
g3
F566.0
sg4
g5
sg6
F0.7716538631639595
sg7
F56301.0
sg8
F0.0
sg9
g5
sg10
S'james.bannantine@enron.com'
p168
sg12
F39.0
sg13
F-5104.0
sg14
F0.8215547703180212
sg15
F8838537.0
sg16
F6.607042730365283
sg17
F-560222.0
sg18
F465.0
sg19
g5
sg20
F29.0
sg21
F864523.0
sg22
F0.0
sg23
g5
sg24
F6.9463803843106735
sg25
g5
sg26
F5243487.0
sg27
F0.0
sg28
F0.06890459363957598
sg29
F1757552.0
sg30
F477.0
sg31
F2972.967709209099
sg32
F916197.0
sg33
F4046157.0
sg34
F2011.5061521158716
ssS'DUNCAN JOHN H'
p169
(dp170
g3
g5
sg4
g5
sg6
F1.0
sg7
g5
sg8
F0.0
sg9
g5
sg10
g37
sg12
g5
sg13
F-25000.0
sg14
g5
sg15
F449242.0
sg16
F5.570250977193992
sg17
g5
sg18
g5
sg19
g5
sg20
g5
sg21
g5
sg22
g5
sg23
F102492.0
sg24
F5.652480352031896
sg25
g5
sg26
F371750.0
sg27
g5
sg28
g5
sg29
g5
sg30
g5
sg31
F670.2551752877407
sg32
F77492.0
sg33
F371750.0
sg34
F609.7130472607586
ssS'SHERRIFF JOHN R'
p171
(dp172
g3
F3187.0
sg4
g5
sg6
F0.5866310512492562
sg7
g5
sg8
F0.0
sg9
F554422.0
sg10
S'john.sherriff@enron.com'
p173
sg12
F28.0
sg13
g5
sg14
F0.6598682146219015
sg15
F12538760.0
sg16
F6.263768111902922
sg17
g5
sg18
F2103.0
sg19
g5
sg20
F92.0
sg21
F1852186.0
sg22
F0.25
sg23
g5
sg24
F7.098254589781384
sg25
F1500000.0
sg26
F3128982.0
sg27
F23.0
sg28
F0.008785691873235017
sg29
F1293424.0
sg30
F428780.0
sg31
F3541.0111550233783
sg32
F4335388.0
sg33
F1835558.0
sg34
F1354.8276643174954
ssS'SHELBY REX'
p174
(dp175
g3
F225.0
sg4
g5
sg6
F0.6514218708895034
sg7
F22884.0
sg8
F1.0
sg9
g5
sg10
S'rex.shelby@enron.com'
p176
sg12
F13.0
sg13
F-4167.0
sg14
F0.40444444444444444
sg15
F7374773.0
sg16
F6.2106919113892465
sg17
g5
sg18
F91.0
sg19
g5
sg20
F39.0
sg21
F1573324.0
sg22
F0.358974358974359
sg23
g5
sg24
F6.86774865700754
sg25
F200000.0
sg26
F2493616.0
sg27
F14.0
sg28
F0.057777777777777775
sg29
F869220.0
sg30
F211844.0
sg31
F2715.6533283907943
sg32
F2003885.0
sg33
F1624396.0
sg34
F1274.5179480886097
ssS'LEMAISTRE CHARLES'
p177
(dp178
g3
g5
sg4
g5
sg6
F1.0
sg7
g5
sg8
F0.0
sg9
g5
sg10
g37
sg12
g5
sg13
F-25000.0
sg14
g5
sg15
F500370.0
sg16
F5.615821742324568
sg17
g5
sg18
g5
sg19
g5
sg20
g5
sg21
g5
sg22
g5
sg23
F112492.0
sg24
F5.699291263401427
sg25
g5
sg26
F412878.0
sg27
g5
sg28
g5
sg29
g5
sg30
g5
sg31
F707.3683623120277
sg32
F87492.0
sg33
F412878.0
sg34
F642.5558341498426
ssS'DEFFNER JOSEPH M'
p179
(dp180
g3
F714.0
sg4
g5
sg6
F0.10915074963413332
sg7
F41626.0
sg8
F0.0
sg9
F335349.0
sg10
S'joseph.deffner@enron.com'
p181
sg12
F115.0
sg13
g5
sg14
F0.773109243697479
sg15
F2382993.0
sg16
F4.239999792886872
sg17
g5
sg18
F552.0
sg19
g5
sg20
F74.0
sg21
F25553.0
sg22
F0.05405405405405406
sg23
g5
sg24
F6.3771227666159325
sg25
F600000.0
sg26
F159211.0
sg27
F4.0
sg28
F0.16106442577030813
sg29
F141833.0
sg30
F206121.0
sg31
F1543.6945941474305
sg32
F1208649.0
sg33
F17378.0
sg34
F131.8256424221024
ssS'KISHKILL JOSEPH G'
p182
(dp183
g3
g5
sg4
g5
sg6
g5
sg7
F116335.0
sg8
F0.0
sg9
g5
sg10
S'joe.kishkill@enron.com'
p184
sg12
g5
sg13
F-51042.0
sg14
g5
sg15
F3529526.0
sg16
g5
sg17
g5
sg18
g5
sg19
g5
sg20
g5
sg21
F465357.0
sg22
g5
sg23
g5
sg24
F6.547716385442622
sg25
g5
sg26
F1034346.0
sg27
g5
sg28
g5
sg29
F1034346.0
sg30
F174246.0
sg31
F1878.703276198772
sg32
F704896.0
sg33
g5
sg34
g5
ssS'WHALLEY LAWRENCE G'
p185
(dp186
g3
F6019.0
sg4
g5
sg6
F0.5400371796194098
sg7
F57838.0
sg8
F0.0
sg9
F808346.0
sg10
S'greg.whalley@enron.com'
p187
sg12
F186.0
sg13
g5
sg14
F0.6512709752450573
sg15
F17422116.0
sg16
F6.516265591262662
sg17
g5
sg18
F3920.0
sg19
g5
sg20
F556.0
sg21
F301026.0
sg22
F0.04316546762589928
sg23
g5
sg24
F7.241100901034156
sg25
F3000000.0
sg26
F6079137.0
sg27
F24.0
sg28
F0.03090214321315833
sg29
F2796177.0
sg30
F510364.0
sg31
F4173.980833688626
sg32
F4677574.0
sg33
F3282960.0
sg34
F1811.8940366368006
ssS'PIRO JIM'
p188
(dp189
g3
F58.0
sg4
g5
sg6
g5
sg7
g5
sg8
F0.0
sg9
g5
sg10
S'jim.piro@enron.com'
p190
sg12
F0.0
sg13
g5
sg14
F0.05172413793103448
sg15
F94608.0
sg16
g5
sg17
g5
sg18
F3.0
sg19
g5
sg20
F16.0
sg21
g5
sg22
F0.0625
sg23
g5
sg24
F4.97592786165503
sg25
g5
sg26
F47304.0
sg27
F1.0
sg28
F0.0
sg29
F47304.0
sg30
g5
sg31
F307.58413483143113
sg32
g5
sg33
g5
sg34
g5
ssS'MCCONNELL MICHAEL S'
p191
(dp192
g3
F3329.0
sg4
g5
sg6
F0.5233356947246603
sg7
F81364.0
sg8
F0.0
sg9
F554422.0
sg10
S'mike.mcconnell@enron.com'
p193
sg12
F92.0
sg13
g5
sg14
F0.657554821267648
sg15
F8227854.0
sg16
F6.2103211956928
sg17
g5
sg18
F2189.0
sg19
g5
sg20
F2742.0
sg21
F540.0
sg22
F0.07075127644055434
sg23
g5
sg24
F6.915286576708039
sg25
F1100000.0
sg26
F3101279.0
sg27
F194.0
sg28
F0.02763592670471613
sg29
F1478269.0
sg30
F365038.0
sg31
F2868.4236088834577
sg32
F2101364.0
sg33
F1623010.0
sg34
F1273.9740970679113
ssS'DELAINEY DAVID W'
p194
(dp195
g3
F3093.0
sg4
g5
sg6
F0.6339091172441614
sg7
F86174.0
sg8
F1.0
sg9
F1294981.0
sg10
S'david.delainey@enron.com'
p196
sg12
F66.0
sg13
g5
sg14
F0.6779825412221144
sg15
F13138386.0
sg16
F6.360046509558762
sg17
g5
sg18
F2097.0
sg19
g5
sg20
F3069.0
sg21
F1661.0
sg22
F0.198435972629521
sg23
g5
sg24
F7.118542017099971
sg25
F3000000.0
sg26
F3614261.0
sg27
F609.0
sg28
F0.02133850630455868
sg29
F1323148.0
sg30
F365163.0
sg31
F3624.691159257572
sg32
F4747979.0
sg33
F2291113.0
sg34
F1513.642295920671
ssS'SULLIVAN-SHAKLOVITZ COLLEEN'
p197
(dp198
g3
g5
sg4
F181993.0
sg6
F1.0
sg7
g5
sg8
F0.0
sg9
F554422.0
sg10
g37
sg12
g5
sg13
g5
sg14
g5
sg15
F2624672.0
sg16
F6.134296665590433
sg17
g5
sg18
g5
sg19
g5
sg20
g5
sg21
F162.0
sg22
g5
sg23
g5
sg24
F6.419075038221804
sg25
F100000.0
sg26
F1362375.0
sg27
g5
sg28
g5
sg29
g5
sg30
F162779.0
sg31
F1620.0839484421788
sg32
F999356.0
sg33
F1362375.0
sg34
F1167.2082076476331
ssS'WROBEL BRUCE'
p199
(dp200
g3
g5
sg4
g5
sg6
F1.0
sg7
g5
sg8
F0.0
sg9
g5
sg10
g37
sg12
g5
sg13
g5
sg14
g5
sg15
F139130.0
sg16
F5.143420785129937
sg17
g5
sg18
g5
sg19
g5
sg20
g5
sg21
g5
sg22
g5
sg23
g5
sg24
F5.143420785129937
sg25
g5
sg26
F139130.0
sg27
g5
sg28
g5
sg29
g5
sg30
g5
sg31
F373.001340480165
sg32
g5
sg33
F139130.0
sg34
F373.001340480165
ssS'LINDHOLM TOD A'
p201
(dp202
g3
g5
sg4
F204075.0
sg6
F0.8319804008083003
sg7
F57727.0
sg8
F0.0
sg9
F175000.0
sg10
S'tod.lindholm@enron.com'
p203
sg12
g5
sg13
g5
sg14
g5
sg15
F4951758.0
sg16
F6.406431337708214
sg17
g5
sg18
g5
sg19
g5
sg20
g5
sg21
F2630.0
sg22
g5
sg23
g5
sg24
F6.694759411893976
sg25
F200000.0
sg26
F3064208.0
sg27
g5
sg28
g5
sg29
F514847.0
sg30
F236457.0
sg31
F2225.2545921759156
sg32
F875889.0
sg33
F2549361.0
sg34
F1596.6718510702192
ssS'MEYER JEROME J'
p204
(dp205
g3
g5
sg4
g5
sg6
g5
sg7
F2151.0
sg8
F0.0
sg9
g5
sg10
g37
sg12
g5
sg13
F-38346.0
sg14
g5
sg15
F4302.0
sg16
g5
sg17
g5
sg18
g5
sg19
g5
sg20
g5
sg21
g5
sg22
g5
sg23
F38346.0
sg24
F3.6336704060514435
sg25
g5
sg26
g5
sg27
g5
sg28
g5
sg29
g5
sg30
g5
sg31
F65.58963332722634
sg32
F2151.0
sg33
g5
sg34
g5
ssS'LAY KENNETH L'
p206
(dp207
g3
F4273.0
sg4
F202911.0
sg6
F0.6994161972212709
sg7
F99832.0
sg8
F1.0
sg9
F3600000.0
sg10
S'kenneth.lay@enron.com'
p208
sg12
F123.0
sg13
F-300000.0
sg14
F0.5642405803884858
sg15
F185963447.0
sg16
F7.53590630947732
sg17
g5
sg18
F2411.0
sg19
F81525000.0
sg20
F36.0
sg21
F10359729.0
sg22
F0.4444444444444444
sg23
g5
sg24
F8.269427587625078
sg25
F7000000.0
sg26
F49110078.0
sg27
F16.0
sg28
F0.028785396676807865
sg29
F14761694.0
sg30
F1072321.0
sg31
F13636.841533141023
sg32
F103559793.0
sg33
F34348384.0
sg34
F5860.749440131356
ssS'BUTTS ROBERT H'
p209
(dp210
g3
g5
sg4
g5
sg6
g5
sg7
F9410.0
sg8
F0.0
sg9
F175000.0
sg10
S'bob.butts@enron.com'
p211
sg12
g5
sg13
F-75000.0
sg14
g5
sg15
F3278402.0
sg16
g5
sg17
g5
sg18
g5
sg19
g5
sg20
g5
sg21
F150656.0
sg22
g5
sg23
g5
sg24
F6.515662205999988
sg25
F750000.0
sg26
F417619.0
sg27
g5
sg28
g5
sg29
F417619.0
sg30
F261516.0
sg31
F1810.635799933272
sg32
F1271582.0
sg33
g5
sg34
g5
ssS'OLSON CINDY K'
p212
(dp213
g3
F1184.0
sg4
F77716.0
sg6
F0.6279949500587511
sg7
F63791.0
sg8
F0.0
sg9
F100000.0
sg10
S'cindy.olson@enron.com'
p214
sg12
F20.0
sg13
g5
sg14
F0.722972972972973
sg15
F6041890.0
sg16
F6.214057699484663
sg17
g5
sg18
F856.0
sg19
g5
sg20
F52.0
sg21
F972.0
sg22
F0.28846153846153844
sg23
g5
sg24
F6.781172814146814
sg25
F750000.0
sg26
F2606763.0
sg27
F15.0
sg28
F0.016891891891891893
sg29
F969729.0
sg30
F329078.0
sg31
F2458.02563046035
sg32
F1321557.0
sg33
F1637034.0
sg34
F1279.4662949839671
ssS'MCDONALD REBECCA'
p215
(dp216
g3
F894.0
sg4
g5
sg6
F0.4477451953036776
sg7
g5
sg8
F0.0
sg9
g5
sg10
S'rebecca.mcdonald@enron.com'
p217
sg12
F54.0
sg13
g5
sg14
F0.8053691275167785
sg15
F2625431.0
sg16
F5.8792685303016965
sg17
g5
sg18
F720.0
sg19
g5
sg20
F13.0
sg21
g5
sg22
F0.07692307692307693
sg23
g5
sg24
F6.41920060890644
sg25
g5
sg26
F1691366.0
sg27
F1.0
sg28
F0.06040268456375839
sg29
F934065.0
sg30
g5
sg31
F1620.3181786303578
sg32
g5
sg33
F757301.0
sg34
F870.2304292542292
ssS'CUMBERLAND MICHAEL S'
p218
(dp219
g3
g5
sg4
g5
sg6
g5
sg7
F22344.0
sg8
F0.0
sg9
F275000.0
sg10
g37
sg12
g5
sg13
g5
sg14
g5
sg15
F1756792.0
sg16
g5
sg17
g5
sg18
g5
sg19
g5
sg20
g5
sg21
F713.0
sg22
g5
sg23
g5
sg24
F6.24472034510392
sg25
F325000.0
sg26
F207940.0
sg27
g5
sg28
g5
sg29
F207940.0
sg30
F184899.0
sg31
F1325.4403042008341
sg32
F807956.0
sg33
g5
sg34
g5
ssS'GAHN ROBERT S'
p220
(dp221
g3
g5
sg4
F73122.0
sg6
F0.2612528914932817
sg7
F50080.0
sg8
F0.0
sg9
g5
sg10
g37
sg12
g5
sg13
F-1042.0
sg14
g5
sg15
F2283067.0
sg16
F4.920316419125792
sg17
g5
sg18
g5
sg19
g5
sg20
g5
sg21
F76547.0
sg22
g5
sg23
g5
sg24
F6.358518656695371
sg25
F509870.0
sg26
F318607.0
sg27
g5
sg28
g5
sg29
F235370.0
sg30
F192008.0
sg31
F1510.9821309333872
sg32
F900585.0
sg33
F83237.0
sg34
F288.50823211825343
ssS'BADUM JAMES P'
p222
(dp223
g3
g5
sg4
F178980.0
sg6
F1.0
sg7
F3486.0
sg8
F0.0
sg9
g5
sg10
g37
sg12
g5
sg13
g5
sg14
g5
sg15
F443769.0
sg16
F5.411311550576639
sg17
g5
sg18
g5
sg19
g5
sg20
g5
sg21
g5
sg22
g5
sg23
g5
sg24
F5.647156960809083
sg25
g5
sg26
F257817.0
sg27
g5
sg28
g5
sg29
g5
sg30
g5
sg31
F666.1598907169359
sg32
F182466.0
sg33
F257817.0
sg34
F507.7568315640864
ssS'HERMANN ROBERT J'
p224
(dp225
g3
g5
sg4
g5
sg6
F0.2806331682960852
sg7
F48357.0
sg8
F0.0
sg9
F150000.0
sg10
S'robert.hermann@enron.com'
p226
sg12
g5
sg13
F-280000.0
sg14
g5
sg15
F3873686.0
sg16
F5.273001272063738
sg17
g5
sg18
g5
sg19
g5
sg20
g5
sg21
F416441.0
sg22
g5
sg23
g5
sg24
F6.588124414009791
sg25
F700000.0
sg26
F668132.0
sg27
g5
sg28
g5
sg29
F480632.0
sg30
F262663.0
sg31
F1968.168183870474
sg32
F1297461.0
sg33
F187500.0
sg34
F433.0127018922193
ssS'FALLON JAMES B'
p227
(dp228
g3
F1755.0
sg4
g5
sg6
F0.40312870996771993
sg7
F95924.0
sg8
F0.0
sg9
F374347.0
sg10
S'jim.fallon@enron.com'
p229
sg12
F42.0
sg13
g5
sg14
F0.913960113960114
sg15
F10702874.0
sg16
F5.9732465753303385
sg17
g5
sg18
F1604.0
sg19
g5
sg20
F75.0
sg21
F401481.0
sg22
F0.49333333333333335
sg23
g5
sg24
F7.02950041270801
sg25
F2500000.0
sg26
F2332399.0
sg27
F37.0
sg28
F0.023931623931623933
sg29
F1392142.0
sg30
F304588.0
sg31
F3271.5247209825575
sg32
F3676340.0
sg33
F940257.0
sg34
F969.6685000555602
ssS'GATHMANN WILLIAM D'
p230
(dp231
g3
g5
sg4
g5
sg6
F0.9015123164864087
sg7
g5
sg8
F0.0
sg9
g5
sg10
g37
sg12
g5
sg13
g5
sg14
g5
sg15
F2209373.0
sg16
F6.243971646220316
sg17
F-72419.0
sg18
g5
sg19
g5
sg20
g5
sg21
g5
sg22
g5
sg23
g5
sg24
F6.344269042338953
sg25
g5
sg26
F1945360.0
sg27
g5
sg28
g5
sg29
F264013.0
sg30
g5
sg31
F1486.3959768513907
sg32
g5
sg33
F1753766.0
sg34
F1324.2983047636963
ssS'HORTON STANLEY C'
p232
(dp233
g3
F2350.0
sg4
F3131860.0
sg6
F0.7180407538025821
sg7
g5
sg8
F0.0
sg9
g5
sg10
S'stanley.horton@enron.com'
p234
sg12
F44.0
sg13
g5
sg14
F0.4570212765957447
sg15
F12434587.0
sg16
F6.71688515133545
sg17
g5
sg18
F1074.0
sg19
g5
sg20
F1073.0
sg21
g5
sg22
F0.013979496738117428
sg23
g5
sg24
F7.094631365271442
sg25
g5
sg26
F7256648.0
sg27
F15.0
sg28
F0.01872340425531915
sg29
F2046079.0
sg30
g5
sg31
F3526.27097654165
sg32
F3131860.0
sg33
F5210569.0
sg34
F2282.6670804127352
ssS'BOWEN JR RAYMOND M'
p235
(dp236
g3
F1858.0
sg4
g5
sg6
g5
sg7
F65907.0
sg8
F1.0
sg9
F974293.0
sg10
S'raymond.bowen@enron.com'
p237
sg12
F140.0
sg13
F-833.0
sg14
F0.8573735199138859
sg15
F4869828.0
sg16
g5
sg17
g5
sg18
F1593.0
sg19
g5
sg20
F27.0
sg21
F1621.0
sg22
F0.5555555555555556
sg23
g5
sg24
F6.687513622411753
sg25
F1350000.0
sg26
F252055.0
sg27
F15.0
sg28
F0.07534983853606028
sg29
F252055.0
sg30
F278601.0
sg31
F2206.768678407413
sg32
F2669589.0
sg33
g5
sg34
g5
ssS'GILLIS JOHN'
p238
(dp239
g3
g5
sg4
g5
sg6
F0.11446620193598861
sg7
g5
sg8
F0.0
sg9
g5
sg10
g37
sg12
g5
sg13
g5
sg14
g5
sg15
F161479.0
sg16
F3.9913590026379504
sg17
g5
sg18
g5
sg19
g5
sg20
g5
sg21
g5
sg22
g5
sg23
g5
sg24
F5.20811605126697
sg25
g5
sg26
F85641.0
sg27
g5
sg28
g5
sg29
F75838.0
sg30
g5
sg31
F401.84449728719693
sg32
g5
sg33
F9803.0
sg34
F99.0101004948485
ssS'FASTOW ANDREW S'
p240
(dp241
g3
g5
sg4
g5
sg6
g5
sg7
F55921.0
sg8
F1.0
sg9
F1736055.0
sg10
S'andrew.fastow@enron.com'
p242
sg12
g5
sg13
F-1386055.0
sg14
g5
sg15
F8086990.0
sg16
g5
sg17
g5
sg18
g5
sg19
g5
sg20
g5
sg21
F277464.0
sg22
g5
sg23
g5
sg24
F6.90778690608236
sg25
F1300000.0
sg26
F1794412.0
sg27
g5
sg28
g5
sg29
F1794412.0
sg30
F440698.0
sg31
F2843.763351617008
sg32
F2424083.0
sg33
g5
sg34
g5
ssS'FITZGERALD JAY L'
p243
(dp244
g3
F936.0
sg4
g5
sg6
F0.40984841195236227
sg7
F23870.0
sg8
F0.0
sg9
F556416.0
sg10
S'jay.fitzgerald@enron.com'
p245
sg12
F1.0
sg13
g5
sg14
F0.7724358974358975
sg15
F4851309.0
sg16
F5.822469495464078
sg17
g5
sg18
F723.0
sg19
g5
sg20
F16.0
sg21
F285414.0
sg22
F0.5
sg23
g5
sg24
F6.685858937524649
sg25
F350000.0
sg26
F1621236.0
sg27
F8.0
sg28
F0.0010683760683760685
sg29
F956775.0
sg30
F199157.0
sg31
F2202.568727645065
sg32
F1414857.0
sg33
F664461.0
sg34
F815.144772417759
ssS'MORAN MICHAEL P'
p246
(dp247
g3
F672.0
sg4
g5
sg6
F0.2692354651557151
sg7
g5
sg8
F0.0
sg9
g5
sg10
S'michael.moran@enron.com'
p248
sg12
F0.0
sg13
g5
sg14
F0.18898809523809523
sg15
F382743.0
sg16
F4.7748015360861675
sg17
g5
sg18
F127.0
sg19
g5
sg20
F19.0
sg21
g5
sg22
F0.0
sg23
g5
sg24
F5.582907256616091
sg25
g5
sg26
F221141.0
sg27
F0.0
sg28
F0.0
sg29
F161602.0
sg30
g5
sg31
F618.6622665073409
sg32
g5
sg33
F59539.0
sg34
F244.0061474635424
ssS'REDMOND BRIAN L'
p249
(dp250
g3
F1671.0
sg4
g5
sg6
F0.951676889314051
sg7
F14689.0
sg8
F0.0
sg9
g5
sg10
S'brian.redmond@enron.com'
p251
sg12
F204.0
sg13
g5
sg14
F0.6361460203470976
sg15
F8494667.0
sg16
F6.8755843599465845
sg17
g5
sg18
F1063.0
sg19
g5
sg20
F221.0
sg21
g5
sg22
F0.22171945701357465
sg23
g5
sg24
F6.92914635873219
sg25
g5
sg26
F7890324.0
sg27
F49.0
sg28
F0.12208258527827648
sg29
F381285.0
sg30
F96840.0
sg31
F2914.5612019650575
sg32
F111529.0
sg33
F7509039.0
sg34
F2740.2625786592057
ssS'BAZELIDES PHILIP J'
p252
(dp253
g3
g5
sg4
F684694.0
sg6
F1.0
sg7
g5
sg8
F0.0
sg9
F93750.0
sg10
g37
sg12
g5
sg13
g5
sg14
g5
sg15
F2541469.0
sg16
F6.204022526897821
sg17
g5
sg18
g5
sg19
g5
sg20
g5
sg21
F874.0
sg22
g5
sg23
g5
sg24
F6.405084816690287
sg25
g5
sg26
F1599641.0
sg27
g5
sg28
g5
sg29
g5
sg30
F80818.0
sg31
F1594.1985447239626
sg32
F860136.0
sg33
F1599641.0
sg34
F1264.769148896351
ssS'BELDEN TIMOTHY N'
p254
(dp255
g3
F7991.0
sg4
F2144013.0
sg6
F0.8581360487258093
sg7
F17355.0
sg8
F1.0
sg9
g5
sg10
S'tim.belden@enron.com'
p256
sg12
F228.0
sg13
F-2334434.0
sg14
F0.6909022650481792
sg15
F12461955.0
sg16
F5.979154873183453
sg17
g5
sg18
F5521.0
sg19
g5
sg20
F484.0
sg21
F210698.0
sg22
F0.2231404958677686
sg23
g5
sg24
F7.0955861786883645
sg25
F5249999.0
sg26
F1110705.0
sg27
F108.0
sg28
F0.028532098610937303
sg29
F157569.0
sg30
F213999.0
sg31
F3530.149430264957
sg32
F5501630.0
sg33
F953136.0
sg34
F976.2868430947946
ssS'DIMICHELE RICHARD G'
p257
(dp258
g3
g5
sg4
g5
sg6
F0.9848484848484849
sg7
F35812.0
sg8
F0.0
sg9
F694862.0
sg10
S'richard.dimichele@enron.com'
p259
sg12
g5
sg13
g5
sg14
g5
sg15
F12485249.0
sg16
F6.913376954894061
sg17
g5
sg18
g5
sg19
g5
sg20
g5
sg21
F374689.0
sg22
g5
sg23
g5
sg24
F7.096397208140923
sg25
F1000000.0
sg26
F8317782.0
sg27
g5
sg28
g5
sg29
F126027.0
sg30
F262788.0
sg31
F3533.4471837003593
sg32
F2368151.0
sg33
F8191755.0
sg34
F2862.124211141089
ssS'DURAN WILLIAM D'
p260
(dp261
g3
F904.0
sg4
g5
sg6
F0.8847950222742259
sg7
F25785.0
sg8
F0.0
sg9
F1105218.0
sg10
S'w.duran@enron.com'
p262
sg12
F106.0
sg13
g5
sg14
F0.6626106194690266
sg15
F4911259.0
sg16
F6.161927432380797
sg17
g5
sg18
F599.0
sg19
g5
sg20
F12.0
sg21
F1568.0
sg22
F0.25
sg23
g5
sg24
F6.691192837675654
sg25
F750000.0
sg26
F1640910.0
sg27
F3.0
sg28
F0.1172566371681416
sg29
F189041.0
sg30
F210692.0
sg31
F2216.136051780215
sg32
F2093263.0
sg33
F1451869.0
sg34
F1204.9352679708566
ssS'THORN TERENCE H'
p263
(dp264
g3
F266.0
sg4
F16586.0
sg6
F0.9241727960254025
sg7
F46145.0
sg8
F0.0
sg9
F200000.0
sg10
S'terence.thorn@enron.com'
p265
sg12
F0.0
sg13
g5
sg14
F0.2744360902255639
sg15
F6789436.0
sg16
F6.648601587181736
sg17
g5
sg18
F73.0
sg19
g5
sg20
F41.0
sg21
F426629.0
sg22
F0.0
sg23
g5
sg24
F6.831833698837024
sg25
g5
sg26
F4817796.0
sg27
F0.0
sg28
F0.0
sg29
F365320.0
sg30
F222093.0
sg31
F2605.6546202442105
sg32
F911453.0
sg33
F4452476.0
sg34
F2110.0890976449314
ssS'FOY JOE'
p266
(dp267
g3
F57.0
sg4
F181755.0
sg6
F1.0
sg7
g5
sg8
F0.0
sg9
g5
sg10
S'tracy.foy@enron.com'
p268
sg12
F0.0
sg13
g5
sg14
F0.03508771929824561
sg15
F525189.0
sg16
F5.535843288150006
sg17
g5
sg18
F2.0
sg19
g5
sg20
F13.0
sg21
g5
sg22
F0.0
sg23
g5
sg24
F5.720315621283912
sg25
g5
sg26
F343434.0
sg27
F0.0
sg28
F0.0
sg29
g5
sg30
g5
sg31
F724.6992479642848
sg32
F181755.0
sg33
F343434.0
sg34
F586.0324223112575
ssS'CALGER CHRISTOPHER F'
p269
(dp270
g3
F2598.0
sg4
g5
sg6
g5
sg7
F35818.0
sg8
F1.0
sg9
F375304.0
sg10
S'christopher.calger@enron.com'
p271
sg12
F199.0
sg13
F-262500.0
sg14
F0.8421862971516552
sg15
F3417844.0
sg16
g5
sg17
g5
sg18
F2188.0
sg19
g5
sg20
F144.0
sg21
F486.0
sg22
F0.1736111111111111
sg23
g5
sg24
F6.533752236417104
sg25
F1250000.0
sg26
F126027.0
sg27
F25.0
sg28
F0.07659738260200154
sg29
F126027.0
sg30
F240189.0
sg31
F1848.7411933529258
sg32
F1639297.0
sg33
g5
sg34
g5
ssS'RICE KENNETH D'
p272
(dp273
g3
F905.0
sg4
g5
sg6
F0.8780809916753388
sg7
F46950.0
sg8
F1.0
sg9
F1617011.0
sg10
S'ken.rice@enron.com'
p274
sg12
F42.0
sg13
F-3504386.0
sg14
F0.9546961325966851
sg15
F28188378.0
sg16
F7.296537405536867
sg17
g5
sg18
F864.0
sg19
g5
sg20
F18.0
sg21
F174839.0
sg22
F0.2222222222222222
sg23
g5
sg24
F7.4500700866585445
sg25
F1750000.0
sg26
F22542539.0
sg27
F4.0
sg28
F0.04640883977900553
sg29
F2748364.0
sg30
F420636.0
sg31
F5309.272831565543
sg32
F505050.0
sg33
F19794175.0
sg34
F4449.064508410729
ssS'COX DAVID'
p275
(dp276
g3
F102.0
sg4
g5
sg6
F0.23717347311417925
sg7
F27861.0
sg8
F0.0
sg9
g5
sg10
S'chip.cox@enron.com'
p277
sg12
F0.0
sg13
F-41250.0
sg14
F0.696078431372549
sg15
F3117751.0
sg16
F5.070226327996345
sg17
g5
sg18
F71.0
sg19
g5
sg20
F33.0
sg21
F494.0
sg22
F0.12121212121212122
sg23
g5
sg24
F6.493841427195297
sg25
F800000.0
sg26
F495633.0
sg27
F4.0
sg28
F0.0
sg29
F378082.0
sg30
F314288.0
sg31
F1765.7154357370273
sg32
F1101393.0
sg33
F117551.0
sg34
F342.8571130952368
ssS'OVERDYKE JR JERE C'
p278
(dp279
g3
g5
sg4
g5
sg6
F0.7206993163550137
sg7
F18834.0
sg8
F0.0
sg9
F135836.0
sg10
S'jere.overdyke@enron.com'
p280
sg12
g5
sg13
g5
sg14
g5
sg15
F9712348.0
sg16
F6.721528520633202
sg17
g5
sg18
g5
sg19
g5
sg20
g5
sg21
F176.0
sg22
g5
sg23
g5
sg24
F6.987324235075091
sg25
g5
sg26
F7307594.0
sg27
g5
sg28
g5
sg29
F2041016.0
sg30
F94941.0
sg31
F3116.4640219325493
sg32
F249787.0
sg33
F5266578.0
sg34
F2294.902612312775
ssS'PEREIRA PAULO V. FERRAZ'
p281
(dp282
g3
g5
sg4
g5
sg6
g5
sg7
F27942.0
sg8
F0.0
sg9
g5
sg10
g37
sg12
g5
sg13
F-101250.0
sg14
g5
sg15
F55884.0
sg16
g5
sg17
g5
sg18
g5
sg19
g5
sg20
g5
sg21
g5
sg22
g5
sg23
F101250.0
sg24
F4.747287483980356
sg25
g5
sg26
g5
sg27
g5
sg28
g5
sg29
g5
sg30
g5
sg31
F236.39796953442726
sg32
F27942.0
sg33
g5
sg34
g5
ssS'STABLER FRANK'
p283
(dp284
g3
g5
sg4
g5
sg6
g5
sg7
F16514.0
sg8
F0.0
sg9
g5
sg10
S'frank.stabler@enron.com'
p285
sg12
g5
sg13
g5
sg14
g5
sg15
F3247642.0
sg16
g5
sg17
g5
sg18
g5
sg19
g5
sg20
g5
sg21
F356071.0
sg22
g5
sg23
g5
sg24
F6.511568149265677
sg25
F500000.0
sg26
F511734.0
sg27
g5
sg28
g5
sg29
F511734.0
sg30
F239502.0
sg31
F1802.12152753359
sg32
F1112087.0
sg33
g5
sg34
g5
ssS'SKILLING JEFFREY K'
p286
(dp287
g3
F3627.0
sg4
g5
sg6
F0.7377267561269261
sg7
F29336.0
sg8
F1.0
sg9
F1920000.0
sg10
S'jeff.skilling@enron.com'
p288
sg12
F88.0
sg13
g5
sg14
F0.5629997242900469
sg15
F48382776.0
sg16
F7.28443073384452
sg17
g5
sg18
F2042.0
sg19
g5
sg20
F108.0
sg21
F22122.0
sg22
F0.2777777777777778
sg23
g5
sg24
F7.684690782729766
sg25
F5600000.0
sg26
F26093672.0
sg27
F30.0
sg28
F0.0242624758753791
sg29
F6843672.0
sg30
F1111258.0
sg31
F6955.772854255665
sg32
F8682716.0
sg33
F19250000.0
sg34
F4387.482193696061
ssS'BLAKE JR. NORMAN P'
p289
(dp290
g3
g5
sg4
g5
sg6
g5
sg7
F1279.0
sg8
F0.0
sg9
g5
sg10
g37
sg12
g5
sg13
F-113784.0
sg14
g5
sg15
F2558.0
sg16
g5
sg17
g5
sg18
g5
sg19
g5
sg20
g5
sg21
g5
sg22
g5
sg23
F113784.0
sg24
F3.407900540142635
sg25
g5
sg26
g5
sg27
g5
sg28
g5
sg29
g5
sg30
g5
sg31
F50.57667446560717
sg32
F1279.0
sg33
g5
sg34
g5
ssS'SHERRICK JEFFREY B'
p291
(dp292
g3
F613.0
sg4
g5
sg6
F0.7784414243522942
sg7
g5
sg8
F0.0
sg9
g5
sg10
S'jeffrey.sherrick@enron.com'
p293
sg12
F39.0
sg13
g5
sg14
F0.9510603588907015
sg15
F2238467.0
sg16
F6.154262338015368
sg17
g5
sg18
F583.0
sg19
g5
sg20
F25.0
sg21
g5
sg22
F0.72
sg23
g5
sg24
F6.349950696296617
sg25
g5
sg26
F1832468.0
sg27
F18.0
sg28
F0.0636215334420881
sg29
F405999.0
sg30
g5
sg31
F1496.1507277009225
sg32
g5
sg33
F1426469.0
sg34
F1194.348776530541
ssS'PRENTICE JAMES'
p294
(dp295
g3
g5
sg4
F564348.0
sg6
F0.8093138150204559
sg7
g5
sg8
F0.0
sg9
g5
sg10
S'james.prentice@enron.com'
p296
sg12
g5
sg13
g5
sg14
g5
sg15
F1868197.0
sg16
F5.947546937405669
sg17
g5
sg18
g5
sg19
g5
sg20
g5
sg21
g5
sg22
g5
sg23
g5
sg24
F6.271422670342612
sg25
g5
sg26
F1095040.0
sg27
g5
sg28
g5
sg29
F208809.0
sg30
g5
sg31
F1366.8200320451847
sg32
F564348.0
sg33
F886231.0
sg34
F941.3984278720674
ssS'GRAY RODNEY'
p297
(dp298
g3
g5
sg4
F93585.0
sg6
g5
sg7
g5
sg8
F0.0
sg9
F365625.0
sg10
g37
sg12
g5
sg13
g5
sg14
g5
sg15
F1834106.0
sg16
g5
sg17
g5
sg18
g5
sg19
g5
sg20
g5
sg21
F680833.0
sg22
g5
sg23
g5
sg24
F6.263424431598332
sg25
g5
sg26
g5
sg27
g5
sg28
g5
sg29
g5
sg30
F6615.0
sg31
F1354.2916967920908
sg32
F1146658.0
sg33
g5
sg34
g5
ssS'UMANOFF ADAM S'
p299
(dp300
g3
F111.0
sg4
g5
sg6
g5
sg7
F53122.0
sg8
F0.0
sg9
g5
sg10
S'adam.umanoff@enron.com'
p301
sg12
F12.0
sg13
g5
sg14
F0.36936936936936937
sg15
F2260922.0
sg16
g5
sg17
g5
sg18
F41.0
sg19
g5
sg20
F18.0
sg21
g5
sg22
F0.0
sg23
g5
sg24
F6.354285579791662
sg25
F788750.0
sg26
g5
sg27
F0.0
sg28
F0.10810810810810811
sg29
g5
sg30
F288589.0
sg31
F1503.636259206328
sg32
F1130461.0
sg33
g5
sg34
g5
ssS'FOWLER PEGGY'
p302
(dp303
g3
F517.0
sg4
g5
sg6
F0.7027878528057863
sg7
g5
sg8
F0.0
sg9
g5
sg10
S'kulvinder.fowler@enron.com'
p304
sg12
F0.0
sg13
g5
sg14
F0.019342359767891684
sg15
F2444918.0
sg16
F6.122077537546181
sg17
g5
sg18
F10.0
sg19
g5
sg20
F36.0
sg21
g5
sg22
F0.0
sg23
g5
sg24
F6.388264297919882
sg25
g5
sg26
F1884748.0
sg27
F0.0
sg28
F0.0
sg29
F560170.0
sg30
g5
sg31
F1563.623356182684
sg32
g5
sg33
F1324578.0
sg34
F1150.903123638128
ssS'WASAFF GEORGE'
p305
(dp306
g3
F400.0
sg4
F831299.0
sg6
F0.8112420231790382
sg7
g5
sg8
F0.0
sg9
F200000.0
sg10
S'george.wasaff@enron.com'
p307
sg12
F22.0
sg13
F-583325.0
sg14
F0.8425
sg15
F4065410.0
sg16
F6.2222637368087685
sg17
g5
sg18
F337.0
sg19
g5
sg20
F30.0
sg21
F1425.0
sg22
F0.23333333333333334
sg23
g5
sg24
F6.6091043511006875
sg25
F325000.0
sg26
F2056427.0
sg27
F7.0
sg28
F0.055
sg29
F388167.0
sg30
F259996.0
sg31
F2016.2861900037901
sg32
F1034395.0
sg33
F1668260.0
sg34
F1291.6113966669695
ssS'WHITE JR THOMAS E'
p308
(dp309
g3
g5
sg4
g5
sg6
F0.08564701963923563
sg7
F81353.0
sg8
F0.0
sg9
g5
sg10
S'thomas.white@enron.com'
p310
sg12
g5
sg13
g5
sg14
g5
sg15
F32859915.0
sg16
F6.112956383198684
sg17
g5
sg18
g5
sg19
g5
sg20
g5
sg21
F1085463.0
sg22
g5
sg23
g5
sg24
F7.516666435694335
sg25
F450000.0
sg26
F15144123.0
sg27
g5
sg28
g5
sg29
F13847074.0
sg30
F317543.0
sg31
F5732.356845137958
sg32
F1934359.0
sg33
F1297049.0
sg34
F1138.880590755677
ssS'CHRISTODOULOU DIOMEDES'
p311
(dp312
g3
g5
sg4
g5
sg6
F0.8435755201027989
sg7
g5
sg8
F0.0
sg9
g5
sg10
S'diomedes.christodoulou@enron.com'
p313
sg12
g5
sg13
g5
sg14
g5
sg15
F7028615.0
sg16
F6.709876446878115
sg17
g5
sg18
g5
sg19
g5
sg20
g5
sg21
g5
sg22
g5
sg23
g5
sg24
F6.846869755017462
sg25
g5
sg26
F6077885.0
sg27
g5
sg28
g5
sg29
F950730.0
sg30
g5
sg31
F2651.1535225256193
sg32
g5
sg33
F5127155.0
sg34
F2264.3221943884223
ssS'ALLEN PHILLIP K'
p314
(dp315
g3
F2902.0
sg4
F2869717.0
sg6
F1.0
sg7
F13868.0
sg8
F0.0
sg9
F304805.0
sg10
S'phillip.allen@enron.com'
p316
sg12
F47.0
sg13
F-3081055.0
sg14
F0.4848380427291523
sg15
F10730985.0
sg16
F6.237930861732111
sg17
F-126027.0
sg18
F1407.0
sg19
g5
sg20
F2195.0
sg21
F152.0
sg22
F0.029612756264236904
sg23
g5
sg24
F7.030639587802955
sg25
F4175000.0
sg26
F1729541.0
sg27
F65.0
sg28
F0.016195727084769126
sg29
F126027.0
sg30
F201955.0
sg31
F3275.8182183997937
sg32
F4484442.0
sg33
F1729541.0
sg34
F1315.1201466025832
ssS'SHARP VICTORIA T'
p317
(dp318
g3
F3136.0
sg4
F187469.0
sg6
F0.5688170867939191
sg7
F116337.0
sg8
F0.0
sg9
F422158.0
sg10
S'vicki.sharp@enron.com'
p319
sg12
F24.0
sg13
g5
sg14
F0.7898596938775511
sg15
F3250594.0
sg16
F5.448819129085941
sg17
g5
sg18
F2477.0
sg19
g5
sg20
F136.0
sg21
F2401.0
sg22
F0.04411764705882353
sg23
g5
sg24
F6.511962729394428
sg25
F600000.0
sg26
F494136.0
sg27
F6.0
sg28
F0.007653061224489796
sg29
F213063.0
sg30
F248146.0
sg31
F1802.9403761633384
sg32
F1576511.0
sg33
F281073.0
sg34
F530.1631824259395
ssS'JAEDICKE ROBERT'
p320
(dp321
g3
g5
sg4
g5
sg6
F1.0
sg7
g5
sg8
F0.0
sg9
g5
sg10
g37
sg12
g5
sg13
F-25000.0
sg14
g5
sg15
F559593.0
sg16
F5.635232346239496
sg17
F-44093.0
sg18
g5
sg19
g5
sg20
g5
sg21
g5
sg22
g5
sg23
F108750.0
sg24
F5.747872273224387
sg25
g5
sg26
F431750.0
sg27
g5
sg28
g5
sg29
F44093.0
sg30
g5
sg31
F748.0594896129585
sg32
F83750.0
sg33
F431750.0
sg34
F657.0768600399804
ssS'WINOKUR JR. HERBERT S'
p322
(dp323
g3
g5
sg4
g5
sg6
g5
sg7
F1413.0
sg8
F0.0
sg9
g5
sg10
g37
sg12
g5
sg13
F-25000.0
sg14
g5
sg15
F86405.0
sg16
g5
sg17
g5
sg18
g5
sg19
g5
sg20
g5
sg21
g5
sg22
g5
sg23
F108579.0
sg24
F4.936538874534217
sg25
g5
sg26
g5
sg27
g5
sg28
g5
sg29
g5
sg30
g5
sg31
F293.9472741836536
sg32
F84992.0
sg33
g5
sg34
g5
ssS'BROWN MICHAEL'
p324
(dp325
g3
F1486.0
sg4
g5
sg6
g5
sg7
F49288.0
sg8
F0.0
sg9
g5
sg10
S'michael.brown@enron.com'
p326
sg12
F13.0
sg13
g5
sg14
F0.5121130551816958
sg15
F98576.0
sg16
g5
sg17
g5
sg18
F761.0
sg19
g5
sg20
F41.0
sg21
g5
sg22
F0.024390243902439025
sg23
g5
sg24
F4.993771191449334
sg25
g5
sg26
g5
sg27
F1.0
sg28
F0.008748317631224764
sg29
g5
sg30
g5
sg31
F313.9681512510465
sg32
F49288.0
sg33
g5
sg34
g5
ssS'MCCLELLAN GEORGE'
p327
(dp328
g3
F1744.0
sg4
g5
sg6
F0.534640627686971
sg7
F228763.0
sg8
F0.0
sg9
g5
sg10
S'george.mcclellan@enron.com'
p329
sg12
F52.0
sg13
F-125000.0
sg14
F0.8423165137614679
sg15
F4151483.0
sg16
F5.704806612462858
sg17
g5
sg18
F1469.0
sg19
g5
sg20
F49.0
sg21
F51587.0
sg22
F0.0
sg23
g5
sg24
F6.618203263860785
sg25
F900000.0
sg26
F947861.0
sg27
F0.0
sg28
F0.02981651376146789
sg29
F441096.0
sg30
F263413.0
sg31
F2037.518834268778
sg32
F1318763.0
sg33
F506765.0
sg34
F711.8742866546031
ssS'HUGHES JAMES A'
p330
(dp331
g3
F719.0
sg4
g5
sg6
F0.6750447516706992
sg7
g5
sg8
F0.0
sg9
g5
sg10
S'james.hughes@enron.com'
p332
sg12
F35.0
sg13
g5
sg14
F0.8191933240611962
sg15
F1481822.0
sg16
F5.877927393556507
sg17
g5
sg18
F589.0
sg19
g5
sg20
F34.0
sg21
g5
sg22
F0.14705882352941177
sg23
g5
sg24
F6.170796038285287
sg25
g5
sg26
F1118394.0
sg27
F5.0
sg28
F0.048678720445062586
sg29
F363428.0
sg30
g5
sg31
F1217.3011131186893
sg32
g5
sg33
F754966.0
sg34
F868.8877948273873
ssS'REYNOLDS LAWRENCE'
p333
(dp334
g3
g5
sg4
F51365.0
sg6
F0.9854996256416853
sg7
F8409.0
sg8
F0.0
sg9
F156250.0
sg10
g37
sg12
g5
sg13
F-200000.0
sg14
g5
sg15
F5204709.0
sg16
F6.619163480223428
sg17
F-140264.0
sg18
g5
sg19
g5
sg20
g5
sg21
F202052.0
sg22
g5
sg23
g5
sg24
F6.716396452727022
sg25
F100000.0
sg26
F4221891.0
sg27
g5
sg28
g5
sg29
F201483.0
sg30
F76399.0
sg31
F2281.3831331014962
sg32
F394475.0
sg33
F4160672.0
sg34
F2039.7725363383045
ssS'PICKERING MARK R'
p335
(dp336
g3
F898.0
sg4
g5
sg6
F1.0
sg7
F31653.0
sg8
F0.0
sg9
g5
sg10
S'mark.pickering@enron.com'
p337
sg12
F7.0
sg13
g5
sg14
F0.8106904231625836
sg15
F2402178.0
sg16
F4.459362327372962
sg17
g5
sg18
F728.0
sg19
F400000.0
sg20
F67.0
sg21
g5
sg22
F0.0
sg23
g5
sg24
F6.380605185229086
sg25
F300000.0
sg26
F28798.0
sg27
F0.0
sg28
F0.0077951002227171495
sg29
g5
sg30
F655037.0
sg31
F1549.896125551645
sg32
F1386690.0
sg33
F28798.0
sg34
F169.69973482595663
ssS'BHATNAGAR SANJAY'
p338
(dp339
g3
F523.0
sg4
g5
sg6
g5
sg7
g5
sg8
F0.0
sg9
g5
sg10
S'sanjay.bhatnagar@enron.com'
p340
sg12
F0.0
sg13
g5
sg14
F0.8852772466539197
sg15
F12989664.0
sg16
F6.415722694288141
sg17
F15456290.0
sg18
F463.0
sg19
g5
sg20
F29.0
sg21
F137864.0
sg22
F0.034482758620689655
sg23
F137864.0
sg24
F7.113597917444608
sg25
g5
sg26
g5
sg27
F1.0
sg28
F0.0
sg29
F-2604490.0
sg30
g5
sg31
F3604.1176451386823
sg32
F15456290.0
sg33
F2604490.0
sg34
F1613.8432389795485
ssS'CARTER REBECCA C'
p341
(dp342
g3
F312.0
sg4
g5
sg6
g5
sg7
g5
sg8
F0.0
sg9
F75000.0
sg10
S'rebecca.carter@enron.com'
p343
sg12
F29.0
sg13
F-159792.0
sg14
F0.6282051282051282
sg15
F1347207.0
sg16
g5
sg17
F-307301.0
sg18
F196.0
sg19
g5
sg20
F15.0
sg21
F540.0
sg22
F0.4666666666666667
sg23
g5
sg24
F6.129434330727334
sg25
F300000.0
sg26
g5
sg27
F7.0
sg28
F0.09294871794871795
sg29
F307301.0
sg30
F261809.0
sg31
F1160.6924657289717
sg32
F477557.0
sg33
g5
sg34
g5
ssS'BUCHANAN HAROLD G'
p344
(dp345
g3
F1088.0
sg4
g5
sg6
F0.8136618350821336
sg7
F600.0
sg8
F0.0
sg9
F304805.0
sg10
S'john.buchanan@enron.com'
p346
sg12
F0.0
sg13
g5
sg14
F0.021139705882352942
sg15
F3008015.0
sg16
F5.9166981376324035
sg17
g5
sg18
F23.0
sg19
g5
sg20
F125.0
sg21
F1215.0
sg22
F0.0
sg23
g5
sg24
F6.478279997611422
sg25
F500000.0
sg26
F1014505.0
sg27
F0.0
sg28
F0.0
sg29
F189041.0
sg30
F248017.0
sg31
F1734.3629954539506
sg32
F1054637.0
sg33
F825464.0
sg34
F908.5504939187475
ssS'YEAP SOON'
p347
(dp348
g3
g5
sg4
g5
sg6
F1.0
sg7
F55097.0
sg8
F0.0
sg9
g5
sg10
g37
sg12
g5
sg13
g5
sg14
g5
sg15
F302952.0
sg16
F5.285012411541445
sg17
g5
sg18
g5
sg19
g5
sg20
g5
sg21
g5
sg22
g5
sg23
g5
sg24
F5.481373823926448
sg25
g5
sg26
F192758.0
sg27
g5
sg28
g5
sg29
g5
sg30
g5
sg31
F550.4107557088615
sg32
F55097.0
sg33
F192758.0
sg34
F439.0421392076164
ssS'MURRAY JULIA H'
p349
(dp350
g3
F2192.0
sg4
g5
sg6
F0.6702998187329382
sg7
F57580.0
sg8
F0.0
sg9
F125000.0
sg10
S'julia.murray@enron.com'
p351
sg12
F11.0
sg13
g5
sg14
F0.1802007299270073
sg15
F2293832.0
sg16
F5.602578663388966
sg17
g5
sg18
F395.0
sg19
g5
sg20
F45.0
sg21
F330.0
sg22
F0.044444444444444446
sg23
g5
sg24
F6.360561607050541
sg25
F400000.0
sg26
F597461.0
sg27
F2.0
sg28
F0.005018248175182482
sg29
F196983.0
sg30
F229284.0
sg31
F1514.540194250387
sg32
F812194.0
sg33
F400478.0
sg34
F632.8333113861817
ssS'GARLAND C KEVIN'
p352
(dp353
g3
F209.0
sg4
g5
sg6
F0.7099747476156415
sg7
F48405.0
sg8
F0.0
sg9
F375304.0
sg10
S'kevin.garland@enron.com'
p354
sg12
F10.0
sg13
g5
sg14
F0.8516746411483254
sg15
F3913694.0
sg16
F5.803625064997643
sg17
g5
sg18
F178.0
sg19
g5
sg20
F44.0
sg21
F60814.0
sg22
F0.6136363636363636
sg23
g5
sg24
F6.592586866465921
sg25
F850000.0
sg26
F896153.0
sg27
F27.0
sg28
F0.04784688995215311
sg29
F259907.0
sg30
F231946.0
sg31
F1978.3058408648546
sg32
F1566469.0
sg33
F636246.0
sg34
F797.6502993166868
ssS'DODSON KEITH'
p355
(dp356
g3
F176.0
sg4
g5
sg6
g5
sg7
F28164.0
sg8
F0.0
sg9
g5
sg10
S'keith.dodson@enron.com'
p357
sg12
F10.0
sg13
g5
sg14
F0.6477272727272727
sg15
F639882.0
sg16
g5
sg17
g5
sg18
F114.0
sg19
g5
sg20
F14.0
sg21
F774.0
sg22
F0.21428571428571427
sg23
g5
sg24
F5.806099893556145
sg25
F70000.0
sg26
g5
sg27
F3.0
sg28
F0.056818181818181816
sg29
g5
sg30
F221003.0
sg31
F799.9262466002725
sg32
F319941.0
sg33
g5
sg34
g5
ssS'YEAGER F SCOTT'
p358
(dp359
g3
g5
sg4
g5
sg6
F0.6990930736662875
sg7
F53947.0
sg8
F1.0
sg9
g5
sg10
S'scott.yeager@enron.com'
p360
sg12
g5
sg13
g5
sg14
g5
sg15
F16181564.0
sg16
F6.919525342291356
sg17
g5
sg18
g5
sg19
g5
sg20
g5
sg21
F147950.0
sg22
g5
sg23
g5
sg24
F7.209020495257925
sg25
g5
sg26
F11884758.0
sg27
g5
sg28
g5
sg29
F3576206.0
sg30
F158403.0
sg31
F4022.631477030925
sg32
F360300.0
sg33
F8308552.0
sg34
F2882.455897320894
ssS'HIRKO JOSEPH'
p361
(dp362
g3
g5
sg4
F10259.0
sg6
F1.0
sg7
F77978.0
sg8
F1.0
sg9
g5
sg10
S'joe.hirko@enron.com'
p363
sg12
g5
sg13
g5
sg14
g5
sg15
F30937991.0
sg16
F7.488071939132753
sg17
g5
sg18
g5
sg19
g5
sg20
g5
sg21
F2856.0
sg22
g5
sg23
g5
sg24
F7.490492108783454
sg25
g5
sg26
F30766064.0
sg27
g5
sg28
g5
sg29
g5
sg30
g5
sg31
F5562.1930027642875
sg32
F91093.0
sg33
F30766064.0
sg34
F5546.71650618634
ssS'DIETRICH JANET R'
p364
(dp365
g3
F2572.0
sg4
g5
sg6
F0.8310706149364614
sg7
F3475.0
sg8
F0.0
sg9
F556416.0
sg10
S'janet.dietrich@enron.com'
p366
sg12
F305.0
sg13
g5
sg14
F0.73950233281493
sg15
F4444667.0
sg16
F6.190337021747442
sg17
g5
sg18
F1902.0
sg19
g5
sg20
F63.0
sg21
F473.0
sg22
F0.2222222222222222
sg23
g5
sg24
F6.647839228640339
sg25
F600000.0
sg26
F1865087.0
sg27
F14.0
sg28
F0.11858475894245724
sg29
F315068.0
sg30
F250100.0
sg31
F2108.2378898027614
sg32
F1410464.0
sg33
F1550019.0
sg34
F1244.997590359114
ssS'DERRICK JR. JAMES V'
p367
(dp368
g3
F2181.0
sg4
g5
sg6
F1.0
sg7
F51124.0
sg8
F0.0
sg9
F484000.0
sg10
S'james.derrick@enron.com'
p369
sg12
F64.0
sg13
F-1284000.0
sg14
F0.6423658872077029
sg15
F12521255.0
sg16
F6.946054782327376
sg17
F-1787380.0
sg18
F1401.0
sg19
g5
sg20
F909.0
sg21
F7482.0
sg22
F0.022002200220022004
sg23
g5
sg24
F7.097647860205028
sg25
F800000.0
sg26
F8831913.0
sg27
F20.0
sg28
F0.029344337459880788
sg29
F1787380.0
sg30
F492375.0
sg31
F3538.53854013207
sg32
F550981.0
sg33
F8831913.0
sg34
F2971.853462067065
ssS'FREVERT MARK A'
p370
(dp371
g3
F3275.0
sg4
F6426990.0
sg6
F0.713540281428528
sg7
F86987.0
sg8
F0.0
sg9
F1617011.0
sg10
S'mark.frevert@enron.com'
p372
sg12
F242.0
sg13
F-3367011.0
sg14
F0.909618320610687
sg15
F46638922.0
sg16
F7.018430769632337
sg17
g5
sg18
F2979.0
sg19
F2000000.0
sg20
F21.0
sg21
F7427621.0
sg22
F0.2857142857142857
sg23
g5
sg24
F7.668748503696454
sg25
F2000000.0
sg26
F14622185.0
sg27
F6.0
sg28
F0.07389312977099237
sg29
F4188667.0
sg30
F1060932.0
sg31
F6829.269507055641
sg32
F17252530.0
sg33
F10433518.0
sg34
F3230.095664218012
ssS'PAI LOU L'
p373
(dp374
g3
g5
sg4
g5
sg6
F0.6450672665508715
sg7
F32047.0
sg8
F0.0
sg9
g5
sg10
S'lou.pai@enron.com'
p375
sg12
g5
sg13
g5
sg14
g5
sg15
F38518459.0
sg16
F7.186509019059678
sg17
g5
sg18
g5
sg19
g5
sg20
g5
sg21
F1829457.0
sg22
g5
sg23
g5
sg24
F7.585668904070782
sg25
F1000000.0
sg26
F23817930.0
sg27
g5
sg28
g5
sg29
F8453763.0
sg30
F261879.0
sg31
F6206.324113354055
sg32
F3123383.0
sg33
F15364167.0
sg34
F3919.715168223324
ssS'HAYSLETT RODERICK J'
p376
(dp377
g3
F2649.0
sg4
g5
sg6
g5
sg7
g5
sg8
F0.0
sg9
g5
sg10
S'rod.hayslett@enron.com'
p378
sg12
F35.0
sg13
g5
sg14
F0.21555303888259722
sg15
F693326.0
sg16
g5
sg17
g5
sg18
F571.0
sg19
g5
sg20
F1061.0
sg21
g5
sg22
F0.03581526861451461
sg23
g5
sg24
F5.840937486719478
sg25
g5
sg26
F346663.0
sg27
F38.0
sg28
F0.01321253303133258
sg29
F346663.0
sg30
g5
sg31
F832.6619962505795
sg32
g5
sg33
g5
sg34
g5
ssS'BAY FRANKLIN R'
p379
(dp380
g3
g5
sg4
F260455.0
sg6
g5
sg7
F129142.0
sg8
F0.0
sg9
g5
sg10
S'frank.bay@enron.com'
p381
sg12
g5
sg13
F-201641.0
sg14
g5
sg15
F1805388.0
sg16
g5
sg17
F-82782.0
sg18
g5
sg19
g5
sg20
g5
sg21
F69.0
sg22
g5
sg23
g5
sg24
F6.256570551477495
sg25
F400000.0
sg26
F63014.0
sg27
g5
sg28
g5
sg29
F145796.0
sg30
F239671.0
sg31
F1343.6472751432943
sg32
F827696.0
sg33
g5
sg34
g5
ssS'MCCARTY DANNY J'
p382
(dp383
g3
F1433.0
sg4
g5
sg6
F0.8754089633971995
sg7
g5
sg8
F0.0
sg9
g5
sg10
S'danny.mccarty@enron.com'
p384
sg12
F25.0
sg13
g5
sg14
F0.35450104675505933
sg15
F853487.0
sg16
F5.822413281867372
sg17
g5
sg18
F508.0
sg19
g5
sg20
F215.0
sg21
g5
sg22
F0.009302325581395349
sg23
g5
sg24
F5.931196910487352
sg25
g5
sg26
F758931.0
sg27
F2.0
sg28
F0.017445917655268667
sg29
F94556.0
sg30
g5
sg31
F923.8436014824155
sg32
g5
sg33
F664375.0
sg34
F815.0920193450553
ssS'FUGH JOHN L'
p385
(dp386
g3
g5
sg4
F50591.0
sg6
F1.0
sg7
g5
sg8
F0.0
sg9
g5
sg10
g37
sg12
g5
sg13
g5
sg14
g5
sg15
F226969.0
sg16
F5.24644441370707
sg17
g5
sg18
g5
sg19
g5
sg20
g5
sg21
g5
sg22
g5
sg23
g5
sg24
F5.355966544204968
sg25
g5
sg26
F176378.0
sg27
g5
sg28
g5
sg29
g5
sg30
g5
sg31
F476.412636272381
sg32
F50591.0
sg33
F176378.0
sg34
F419.9738087071621
ssS'SCRIMSHAW MATTHEW'
p387
(dp388
g3
g5
sg4
g5
sg6
F1.0
sg7
g5
sg8
F0.0
sg9
g5
sg10
S'matthew.scrimshaw@enron.com'
p389
sg12
g5
sg13
g5
sg14
g5
sg15
F759557.0
sg16
F5.880560370505059
sg17
g5
sg18
g5
sg19
g5
sg20
g5
sg21
g5
sg22
g5
sg23
g5
sg24
F5.880560370505059
sg25
g5
sg26
F759557.0
sg27
g5
sg28
g5
sg29
g5
sg30
g5
sg31
F871.5256737469069
sg32
g5
sg33
F759557.0
sg34
F871.5256737469069
ssS'KOENIG MARK E'
p390
(dp391
g3
F2374.0
sg4
g5
sg6
F0.3498529990026327
sg7
F127017.0
sg8
F1.0
sg9
F300000.0
sg10
S'mark.koenig@enron.com'
p392
sg12
F53.0
sg13
g5
sg14
F0.9566133108677338
sg15
F6043215.0
sg16
F5.827199270366991
sg17
g5
sg18
F2271.0
sg19
g5
sg20
F61.0
sg21
F150458.0
sg22
F0.2459016393442623
sg23
g5
sg24
F6.7812680454568985
sg25
F700000.0
sg26
F1920055.0
sg27
F15.0
sg28
F0.02232518955349621
sg29
F1248318.0
sg30
F309946.0
sg31
F2458.2951409462617
sg32
F1587421.0
sg33
F671737.0
sg34
F819.5956320039779
ssS'SAVAGE FRANK'
p393
(dp394
g3
g5
sg4
g5
sg6
g5
sg7
g5
sg8
F0.0
sg9
g5
sg10
g37
sg12
g5
sg13
F-121284.0
sg14
g5
sg15
F3750.0
sg16
g5
sg17
g5
sg18
g5
sg19
g5
sg20
g5
sg21
g5
sg22
g5
sg23
F125034.0
sg24
F3.574031267727719
sg25
g5
sg26
g5
sg27
g5
sg28
g5
sg29
g5
sg30
g5
sg31
F61.237243569579455
sg32
F3750.0
sg33
g5
sg34
g5
ssS'IZZO LAWRENCE L'
p395
(dp396
g3
F496.0
sg4
g5
sg6
F0.3720239588452194
sg7
F28093.0
sg8
F0.0
sg9
F312500.0
sg10
S'larry.izzo@enron.com'
p397
sg12
F28.0
sg13
g5
sg14
F0.8810483870967742
sg15
F13121480.0
sg16
F6.335492402159962
sg17
g5
sg18
F437.0
sg19
g5
sg20
F19.0
sg21
F1553729.0
sg22
F0.2631578947368421
sg23
g5
sg24
F7.117982822812732
sg25
g5
sg26
F5819980.0
sg27
F5.0
sg28
F0.056451612903225805
sg29
F3654808.0
sg30
F85274.0
sg31
F3622.358347817068
sg32
F1979596.0
sg33
F2165172.0
sg34
F1471.4523437746802
ssS'TILNEY ELIZABETH A'
p398
(dp399
g3
F460.0
sg4
g5
sg6
F0.5061889897794771
sg7
g5
sg8
F0.0
sg9
F275000.0
sg10
S'elizabeth.tilney@enron.com'
p400
sg12
F10.0
sg13
F-575000.0
sg14
F0.8239130434782609
sg15
F2843620.0
sg16
F5.771771153745868
sg17
g5
sg18
F379.0
sg19
g5
sg20
F19.0
sg21
F152055.0
sg22
F0.5789473684210527
sg23
g5
sg24
F6.453871560085351
sg25
F300000.0
sg26
F1168042.0
sg27
F11.0
sg28
F0.021739130434782608
sg29
F576792.0
sg30
F247338.0
sg31
F1686.3036499990149
sg32
F399393.0
sg33
F591250.0
sg34
F768.9278249614849
ssS'MARTIN AMANDA K'
p401
(dp402
g3
F1522.0
sg4
F85430.0
sg6
F1.0
sg7
F8211.0
sg8
F0.0
sg9
F5145434.0
sg10
S'a..martin@enron.com'
p403
sg12
F8.0
sg13
g5
sg14
F0.31340341655716164
sg15
F13653474.0
sg16
F6.316034540766011
sg17
g5
sg18
F477.0
sg19
g5
sg20
F230.0
sg21
F2818454.0
sg22
F0.0
sg23
g5
sg24
F7.135243167645751
sg25
g5
sg26
F2070306.0
sg27
F0.0
sg28
F0.005256241787122208
sg29
g5
sg30
F349487.0
sg31
F3695.0607572812655
sg32
F8407016.0
sg33
F2070306.0
sg34
F1438.855795415232
ssS'BUY RICHARD B'
p404
(dp405
g3
F3523.0
sg4
F649584.0
sg6
F0.7382305550636237
sg7
g5
sg8
F0.0
sg9
F769862.0
sg10
S'rick.buy@enron.com'
p406
sg12
F156.0
sg13
F-694862.0
sg14
F0.6622196991200682
sg15
F8332947.0
sg16
F6.405314423072181
sg17
g5
sg18
F2333.0
sg19
g5
sg20
F1053.0
sg21
F400572.0
sg22
F0.06742640075973409
sg23
g5
sg24
F6.9207986195934765
sg25
F900000.0
sg26
F3444470.0
sg27
F71.0
sg28
F0.04428044280442804
sg29
F901657.0
sg30
F330546.0
sg31
F2886.684430276368
sg32
F2355702.0
sg33
F2542813.0
sg34
F1594.6200174336204
ssS'GRAMM WENDY L'
p407
(dp408
g3
g5
sg4
g5
sg6
g5
sg7
g5
sg8
F0.0
sg9
g5
sg10
g37
sg12
g5
sg13
g5
sg14
g5
sg15
F119292.0
sg16
g5
sg17
g5
sg18
g5
sg19
g5
sg20
g5
sg21
g5
sg22
g5
sg23
F119292.0
sg24
F5.076611319845096
sg25
g5
sg26
g5
sg27
g5
sg28
g5
sg29
g5
sg30
g5
sg31
F345.3867397570439
sg32
F119292.0
sg33
g5
sg34
g5
ssS'CAUSEY RICHARD A'
p409
(dp410
g3
F1892.0
sg4
g5
sg6
g5
sg7
F30674.0
sg8
F1.0
sg9
F350000.0
sg10
S'richard.causey@enron.com'
p411
sg12
F58.0
sg13
F-235000.0
sg14
F0.837737843551797
sg15
F8626642.0
sg16
g5
sg17
g5
sg18
F1585.0
sg19
g5
sg20
F49.0
sg21
F307895.0
sg22
F0.24489795918367346
sg23
g5
sg24
F6.935841775474929
sg25
F1000000.0
sg26
F2502063.0
sg27
F12.0
sg28
F0.0306553911205074
sg29
F2502063.0
sg30
F415189.0
sg31
F2937.1145704585647
sg32
F1868758.0
sg33
g5
sg34
g5
ssS'TAYLOR MITCHELL S'
p412
(dp413
g3
F533.0
sg4
F227449.0
sg6
F0.849455067064561
sg7
g5
sg8
F0.0
sg9
g5
sg10
S'mitchell.taylor@enron.com'
p414
sg12
F0.0
sg13
g5
sg14
F0.5628517823639775
sg15
F6266723.0
sg16
F6.502597799680834
sg17
g5
sg18
F300.0
sg19
g5
sg20
F29.0
sg21
g5
sg22
F0.0
sg23
g5
sg24
F6.797040498556653
sg25
F600000.0
sg26
F3745048.0
sg27
F0.0
sg28
F0.0
sg29
F563798.0
sg30
F265214.0
sg31
F2503.342365718281
sg32
F1092663.0
sg33
F3181250.0
sg34
F1783.605898173697
ssS'DONAHUE JR JEFFREY M'
p415
(dp416
g3
F865.0
sg4
g5
sg6
F0.7085370050361336
sg7
F96268.0
sg8
F0.0
sg9
g5
sg10
S'jeff.donahue@enron.com'
p417
sg12
F188.0
sg13
F-300000.0
sg14
F0.892485549132948
sg15
F3447576.0
sg16
F5.884183410137873
sg17
g5
sg18
F772.0
sg19
g5
sg20
F22.0
sg21
F891.0
sg22
F0.5
sg23
g5
sg24
F6.537513848746892
sg25
F800000.0
sg26
F1080988.0
sg27
F11.0
sg28
F0.21734104046242775
sg29
F315068.0
sg30
F278601.0
sg31
F1856.7649285787363
sg32
F875760.0
sg33
F765920.0
sg34
F875.168555193798
ssS'GLISAN JR BEN F'
p418
(dp419
g3
F873.0
sg4
g5
sg6
F0.49416219465516487
sg7
F125978.0
sg8
F1.0
sg9
F71023.0
sg10
S'ben.glisan@enron.com'
p420
sg12
F52.0
sg13
g5
sg14
F1.0011454753722795
sg15
F3645909.0
sg16
F5.585153794840684
sg17
g5
sg18
F874.0
sg19
g5
sg20
F16.0
sg21
F200308.0
sg22
F0.375
sg23
g5
sg24
F6.561805824688936
sg25
F600000.0
sg26
F778546.0
sg27
F6.0
sg28
F0.05956471935853379
sg29
F393818.0
sg30
F274975.0
sg31
F1909.4263536465605
sg32
F1272284.0
sg33
F384728.0
sg34
F620.2644597266557
ss.