(lp0
S'poi'
p1
aS'to_messages'
p2
aS'expenses'
p3
aS'from_poi_to_this_person'
p4
aS'shared_with_poi_ratio'
p5
aS'shared_receipt_with_poi'
p6
aS'other'
p7
aS'to_poi_ratio'
p8
aS'bonus'
p9
aS'total_stock_value'
p10
aS'restricted_stock'
p11
aS'salary'
p12
aS'sqrt_wealth'
p13
aS'total_payments'
p14
aS'exercised_stock_options'
p15
aS'sqrt_exercised_stock_options'
p16
a.